ARM GAS  /tmp/cc70OH2t.s 			page 1


   1              		.syntax unified
   2              		.cpu cortex-m0plus
   3              		.fpu softvfp
   4              		.eabi_attribute 20, 1
   5              		.eabi_attribute 21, 1
   6              		.eabi_attribute 23, 3
   7              		.eabi_attribute 24, 1
   8              		.eabi_attribute 25, 1
   9              		.eabi_attribute 26, 1
  10              		.eabi_attribute 30, 1
  11              		.eabi_attribute 34, 0
  12              		.eabi_attribute 18, 4
  13              		.thumb
  14              		.syntax unified
  15              		.file	"stm32l0xx_hal_flash_ex.c"
  16              		.text
  17              	.Ltext0:
  18              		.cfi_sections	.debug_frame
  19              		.section	.text.FLASH_OB_GetUser,"ax",%progbits
  20              		.align	2
  21              		.code	16
  22              		.thumb_func
  24              	FLASH_OB_GetUser:
  25              	.LFB54:
  26              		.file 1 "Drivers/STM32L0xx_HAL_Driver/Src/stm32l0xx_hal_flash_ex.c"
   1:Drivers/STM32L0xx_HAL_Driver/Src/stm32l0xx_hal_flash_ex.c **** /**
   2:Drivers/STM32L0xx_HAL_Driver/Src/stm32l0xx_hal_flash_ex.c ****   ******************************************************************************
   3:Drivers/STM32L0xx_HAL_Driver/Src/stm32l0xx_hal_flash_ex.c ****   * @file    stm32l0xx_hal_flash_ex.c
   4:Drivers/STM32L0xx_HAL_Driver/Src/stm32l0xx_hal_flash_ex.c ****   * @author  MCD Application Team
   5:Drivers/STM32L0xx_HAL_Driver/Src/stm32l0xx_hal_flash_ex.c ****   * @version V1.8.1
   6:Drivers/STM32L0xx_HAL_Driver/Src/stm32l0xx_hal_flash_ex.c ****   * @date    14-April-2017
   7:Drivers/STM32L0xx_HAL_Driver/Src/stm32l0xx_hal_flash_ex.c ****   * @brief   Extended FLASH HAL module driver.
   8:Drivers/STM32L0xx_HAL_Driver/Src/stm32l0xx_hal_flash_ex.c ****   *    
   9:Drivers/STM32L0xx_HAL_Driver/Src/stm32l0xx_hal_flash_ex.c ****   *          This file provides firmware functions to manage the following 
  10:Drivers/STM32L0xx_HAL_Driver/Src/stm32l0xx_hal_flash_ex.c ****   *          functionalities of the internal FLASH memory:
  11:Drivers/STM32L0xx_HAL_Driver/Src/stm32l0xx_hal_flash_ex.c ****   *            + FLASH Interface configuration
  12:Drivers/STM32L0xx_HAL_Driver/Src/stm32l0xx_hal_flash_ex.c ****   *            + FLASH Memory Erasing
  13:Drivers/STM32L0xx_HAL_Driver/Src/stm32l0xx_hal_flash_ex.c ****   *            + DATA EEPROM Programming/Erasing
  14:Drivers/STM32L0xx_HAL_Driver/Src/stm32l0xx_hal_flash_ex.c ****   *            + Option Bytes Programming
  15:Drivers/STM32L0xx_HAL_Driver/Src/stm32l0xx_hal_flash_ex.c ****   *            + Interrupts management
  16:Drivers/STM32L0xx_HAL_Driver/Src/stm32l0xx_hal_flash_ex.c ****   *    
  17:Drivers/STM32L0xx_HAL_Driver/Src/stm32l0xx_hal_flash_ex.c ****   @verbatim
  18:Drivers/STM32L0xx_HAL_Driver/Src/stm32l0xx_hal_flash_ex.c ****   ==============================================================================
  19:Drivers/STM32L0xx_HAL_Driver/Src/stm32l0xx_hal_flash_ex.c ****                ##### Flash peripheral Extended features  #####
  20:Drivers/STM32L0xx_HAL_Driver/Src/stm32l0xx_hal_flash_ex.c ****   ==============================================================================
  21:Drivers/STM32L0xx_HAL_Driver/Src/stm32l0xx_hal_flash_ex.c ****            
  22:Drivers/STM32L0xx_HAL_Driver/Src/stm32l0xx_hal_flash_ex.c ****   [..] Comparing to other products, the FLASH interface for STM32L0xx
  23:Drivers/STM32L0xx_HAL_Driver/Src/stm32l0xx_hal_flash_ex.c ****        devices contains the following additional features        
  24:Drivers/STM32L0xx_HAL_Driver/Src/stm32l0xx_hal_flash_ex.c ****        (+) Erase functions
  25:Drivers/STM32L0xx_HAL_Driver/Src/stm32l0xx_hal_flash_ex.c ****        (+) DATA_EEPROM memory management
  26:Drivers/STM32L0xx_HAL_Driver/Src/stm32l0xx_hal_flash_ex.c ****        (+) BOOT option bit configuration       
  27:Drivers/STM32L0xx_HAL_Driver/Src/stm32l0xx_hal_flash_ex.c ****        (+) PCROP protection for all sectors
  28:Drivers/STM32L0xx_HAL_Driver/Src/stm32l0xx_hal_flash_ex.c ****    
  29:Drivers/STM32L0xx_HAL_Driver/Src/stm32l0xx_hal_flash_ex.c ****                       ##### How to use this driver #####
  30:Drivers/STM32L0xx_HAL_Driver/Src/stm32l0xx_hal_flash_ex.c ****   ==============================================================================
  31:Drivers/STM32L0xx_HAL_Driver/Src/stm32l0xx_hal_flash_ex.c ****   [..] This driver provides functions to configure and program the FLASH memory 
  32:Drivers/STM32L0xx_HAL_Driver/Src/stm32l0xx_hal_flash_ex.c ****        of all STM32L0xx. It includes:
ARM GAS  /tmp/cc70OH2t.s 			page 2


  33:Drivers/STM32L0xx_HAL_Driver/Src/stm32l0xx_hal_flash_ex.c ****        (+) Full DATA_EEPROM erase and program management
  34:Drivers/STM32L0xx_HAL_Driver/Src/stm32l0xx_hal_flash_ex.c ****        (+) Boot activation
  35:Drivers/STM32L0xx_HAL_Driver/Src/stm32l0xx_hal_flash_ex.c ****        (+) PCROP protection configuration and control for all pages
  36:Drivers/STM32L0xx_HAL_Driver/Src/stm32l0xx_hal_flash_ex.c ****   
  37:Drivers/STM32L0xx_HAL_Driver/Src/stm32l0xx_hal_flash_ex.c ****   @endverbatim
  38:Drivers/STM32L0xx_HAL_Driver/Src/stm32l0xx_hal_flash_ex.c ****   ******************************************************************************
  39:Drivers/STM32L0xx_HAL_Driver/Src/stm32l0xx_hal_flash_ex.c ****   * @attention
  40:Drivers/STM32L0xx_HAL_Driver/Src/stm32l0xx_hal_flash_ex.c ****   *
  41:Drivers/STM32L0xx_HAL_Driver/Src/stm32l0xx_hal_flash_ex.c ****   * <h2><center>&copy; COPYRIGHT(c) 2016 STMicroelectronics</center></h2>
  42:Drivers/STM32L0xx_HAL_Driver/Src/stm32l0xx_hal_flash_ex.c ****   *
  43:Drivers/STM32L0xx_HAL_Driver/Src/stm32l0xx_hal_flash_ex.c ****   * Redistribution and use in source and binary forms, with or without modification,
  44:Drivers/STM32L0xx_HAL_Driver/Src/stm32l0xx_hal_flash_ex.c ****   * are permitted provided that the following conditions are met:
  45:Drivers/STM32L0xx_HAL_Driver/Src/stm32l0xx_hal_flash_ex.c ****   *   1. Redistributions of source code must retain the above copyright notice,
  46:Drivers/STM32L0xx_HAL_Driver/Src/stm32l0xx_hal_flash_ex.c ****   *      this list of conditions and the following disclaimer.
  47:Drivers/STM32L0xx_HAL_Driver/Src/stm32l0xx_hal_flash_ex.c ****   *   2. Redistributions in binary form must reproduce the above copyright notice,
  48:Drivers/STM32L0xx_HAL_Driver/Src/stm32l0xx_hal_flash_ex.c ****   *      this list of conditions and the following disclaimer in the documentation
  49:Drivers/STM32L0xx_HAL_Driver/Src/stm32l0xx_hal_flash_ex.c ****   *      and/or other materials provided with the distribution.
  50:Drivers/STM32L0xx_HAL_Driver/Src/stm32l0xx_hal_flash_ex.c ****   *   3. Neither the name of STMicroelectronics nor the names of its contributors
  51:Drivers/STM32L0xx_HAL_Driver/Src/stm32l0xx_hal_flash_ex.c ****   *      may be used to endorse or promote products derived from this software
  52:Drivers/STM32L0xx_HAL_Driver/Src/stm32l0xx_hal_flash_ex.c ****   *      without specific prior written permission.
  53:Drivers/STM32L0xx_HAL_Driver/Src/stm32l0xx_hal_flash_ex.c ****   *
  54:Drivers/STM32L0xx_HAL_Driver/Src/stm32l0xx_hal_flash_ex.c ****   * THIS SOFTWARE IS PROVIDED BY THE COPYRIGHT HOLDERS AND CONTRIBUTORS "AS IS"
  55:Drivers/STM32L0xx_HAL_Driver/Src/stm32l0xx_hal_flash_ex.c ****   * AND ANY EXPRESS OR IMPLIED WARRANTIES, INCLUDING, BUT NOT LIMITED TO, THE
  56:Drivers/STM32L0xx_HAL_Driver/Src/stm32l0xx_hal_flash_ex.c ****   * IMPLIED WARRANTIES OF MERCHANTABILITY AND FITNESS FOR A PARTICULAR PURPOSE ARE
  57:Drivers/STM32L0xx_HAL_Driver/Src/stm32l0xx_hal_flash_ex.c ****   * DISCLAIMED. IN NO EVENT SHALL THE COPYRIGHT HOLDER OR CONTRIBUTORS BE LIABLE
  58:Drivers/STM32L0xx_HAL_Driver/Src/stm32l0xx_hal_flash_ex.c ****   * FOR ANY DIRECT, INDIRECT, INCIDENTAL, SPECIAL, EXEMPLARY, OR CONSEQUENTIAL
  59:Drivers/STM32L0xx_HAL_Driver/Src/stm32l0xx_hal_flash_ex.c ****   * DAMAGES (INCLUDING, BUT NOT LIMITED TO, PROCUREMENT OF SUBSTITUTE GOODS OR
  60:Drivers/STM32L0xx_HAL_Driver/Src/stm32l0xx_hal_flash_ex.c ****   * SERVICES; LOSS OF USE, DATA, OR PROFITS; OR BUSINESS INTERRUPTION) HOWEVER
  61:Drivers/STM32L0xx_HAL_Driver/Src/stm32l0xx_hal_flash_ex.c ****   * CAUSED AND ON ANY THEORY OF LIABILITY, WHETHER IN CONTRACT, STRICT LIABILITY,
  62:Drivers/STM32L0xx_HAL_Driver/Src/stm32l0xx_hal_flash_ex.c ****   * OR TORT (INCLUDING NEGLIGENCE OR OTHERWISE) ARISING IN ANY WAY OUT OF THE USE
  63:Drivers/STM32L0xx_HAL_Driver/Src/stm32l0xx_hal_flash_ex.c ****   * OF THIS SOFTWARE, EVEN IF ADVISED OF THE POSSIBILITY OF SUCH DAMAGE.
  64:Drivers/STM32L0xx_HAL_Driver/Src/stm32l0xx_hal_flash_ex.c ****   *
  65:Drivers/STM32L0xx_HAL_Driver/Src/stm32l0xx_hal_flash_ex.c ****   ******************************************************************************  
  66:Drivers/STM32L0xx_HAL_Driver/Src/stm32l0xx_hal_flash_ex.c ****   */ 
  67:Drivers/STM32L0xx_HAL_Driver/Src/stm32l0xx_hal_flash_ex.c **** 
  68:Drivers/STM32L0xx_HAL_Driver/Src/stm32l0xx_hal_flash_ex.c **** /* Includes ------------------------------------------------------------------*/
  69:Drivers/STM32L0xx_HAL_Driver/Src/stm32l0xx_hal_flash_ex.c **** #include "stm32l0xx_hal.h"
  70:Drivers/STM32L0xx_HAL_Driver/Src/stm32l0xx_hal_flash_ex.c **** 
  71:Drivers/STM32L0xx_HAL_Driver/Src/stm32l0xx_hal_flash_ex.c **** /** @addtogroup STM32L0xx_HAL_Driver
  72:Drivers/STM32L0xx_HAL_Driver/Src/stm32l0xx_hal_flash_ex.c ****   * @{
  73:Drivers/STM32L0xx_HAL_Driver/Src/stm32l0xx_hal_flash_ex.c ****   */
  74:Drivers/STM32L0xx_HAL_Driver/Src/stm32l0xx_hal_flash_ex.c **** #ifdef HAL_FLASH_MODULE_ENABLED
  75:Drivers/STM32L0xx_HAL_Driver/Src/stm32l0xx_hal_flash_ex.c **** 
  76:Drivers/STM32L0xx_HAL_Driver/Src/stm32l0xx_hal_flash_ex.c **** /** @addtogroup FLASH
  77:Drivers/STM32L0xx_HAL_Driver/Src/stm32l0xx_hal_flash_ex.c ****   * @{
  78:Drivers/STM32L0xx_HAL_Driver/Src/stm32l0xx_hal_flash_ex.c ****   */
  79:Drivers/STM32L0xx_HAL_Driver/Src/stm32l0xx_hal_flash_ex.c **** /** @addtogroup FLASH_Private_Variables
  80:Drivers/STM32L0xx_HAL_Driver/Src/stm32l0xx_hal_flash_ex.c ****  * @{
  81:Drivers/STM32L0xx_HAL_Driver/Src/stm32l0xx_hal_flash_ex.c ****  */
  82:Drivers/STM32L0xx_HAL_Driver/Src/stm32l0xx_hal_flash_ex.c **** /* Variables used for Erase pages under interruption*/
  83:Drivers/STM32L0xx_HAL_Driver/Src/stm32l0xx_hal_flash_ex.c **** extern FLASH_ProcessTypeDef pFlash;
  84:Drivers/STM32L0xx_HAL_Driver/Src/stm32l0xx_hal_flash_ex.c **** /**
  85:Drivers/STM32L0xx_HAL_Driver/Src/stm32l0xx_hal_flash_ex.c ****   * @}
  86:Drivers/STM32L0xx_HAL_Driver/Src/stm32l0xx_hal_flash_ex.c ****   */
  87:Drivers/STM32L0xx_HAL_Driver/Src/stm32l0xx_hal_flash_ex.c **** 
  88:Drivers/STM32L0xx_HAL_Driver/Src/stm32l0xx_hal_flash_ex.c **** /**
  89:Drivers/STM32L0xx_HAL_Driver/Src/stm32l0xx_hal_flash_ex.c ****   * @}
ARM GAS  /tmp/cc70OH2t.s 			page 3


  90:Drivers/STM32L0xx_HAL_Driver/Src/stm32l0xx_hal_flash_ex.c ****   */
  91:Drivers/STM32L0xx_HAL_Driver/Src/stm32l0xx_hal_flash_ex.c ****   
  92:Drivers/STM32L0xx_HAL_Driver/Src/stm32l0xx_hal_flash_ex.c **** /** @defgroup FLASHEx FLASHEx
  93:Drivers/STM32L0xx_HAL_Driver/Src/stm32l0xx_hal_flash_ex.c ****   * @brief FLASH HAL Extension module driver
  94:Drivers/STM32L0xx_HAL_Driver/Src/stm32l0xx_hal_flash_ex.c ****   * @{
  95:Drivers/STM32L0xx_HAL_Driver/Src/stm32l0xx_hal_flash_ex.c ****   */
  96:Drivers/STM32L0xx_HAL_Driver/Src/stm32l0xx_hal_flash_ex.c **** 
  97:Drivers/STM32L0xx_HAL_Driver/Src/stm32l0xx_hal_flash_ex.c **** /* Private typedef -----------------------------------------------------------*/
  98:Drivers/STM32L0xx_HAL_Driver/Src/stm32l0xx_hal_flash_ex.c **** /* Private define ------------------------------------------------------------*/
  99:Drivers/STM32L0xx_HAL_Driver/Src/stm32l0xx_hal_flash_ex.c **** /** @defgroup FLASHEx_Private_Constants FLASHEx Private Constants
 100:Drivers/STM32L0xx_HAL_Driver/Src/stm32l0xx_hal_flash_ex.c ****  * @{
 101:Drivers/STM32L0xx_HAL_Driver/Src/stm32l0xx_hal_flash_ex.c ****  */
 102:Drivers/STM32L0xx_HAL_Driver/Src/stm32l0xx_hal_flash_ex.c **** /**
 103:Drivers/STM32L0xx_HAL_Driver/Src/stm32l0xx_hal_flash_ex.c ****   * @}
 104:Drivers/STM32L0xx_HAL_Driver/Src/stm32l0xx_hal_flash_ex.c ****   */
 105:Drivers/STM32L0xx_HAL_Driver/Src/stm32l0xx_hal_flash_ex.c **** 
 106:Drivers/STM32L0xx_HAL_Driver/Src/stm32l0xx_hal_flash_ex.c **** /* Private macro -------------------------------------------------------------*/
 107:Drivers/STM32L0xx_HAL_Driver/Src/stm32l0xx_hal_flash_ex.c **** /** @defgroup FLASHEx_Private_Macros FLASHEx Private Macros
 108:Drivers/STM32L0xx_HAL_Driver/Src/stm32l0xx_hal_flash_ex.c ****   * @{
 109:Drivers/STM32L0xx_HAL_Driver/Src/stm32l0xx_hal_flash_ex.c ****   */
 110:Drivers/STM32L0xx_HAL_Driver/Src/stm32l0xx_hal_flash_ex.c **** /**
 111:Drivers/STM32L0xx_HAL_Driver/Src/stm32l0xx_hal_flash_ex.c ****   * @}
 112:Drivers/STM32L0xx_HAL_Driver/Src/stm32l0xx_hal_flash_ex.c ****   */ 
 113:Drivers/STM32L0xx_HAL_Driver/Src/stm32l0xx_hal_flash_ex.c **** 
 114:Drivers/STM32L0xx_HAL_Driver/Src/stm32l0xx_hal_flash_ex.c **** /* Private variables ---------------------------------------------------------*/
 115:Drivers/STM32L0xx_HAL_Driver/Src/stm32l0xx_hal_flash_ex.c **** /* Private function prototypes -----------------------------------------------*/
 116:Drivers/STM32L0xx_HAL_Driver/Src/stm32l0xx_hal_flash_ex.c **** /** @defgroup FLASHEx_Private_Functions FLASHEx Private Functions
 117:Drivers/STM32L0xx_HAL_Driver/Src/stm32l0xx_hal_flash_ex.c ****  * @{
 118:Drivers/STM32L0xx_HAL_Driver/Src/stm32l0xx_hal_flash_ex.c ****  */
 119:Drivers/STM32L0xx_HAL_Driver/Src/stm32l0xx_hal_flash_ex.c **** void                      FLASH_PageErase(uint32_t PageAddress);
 120:Drivers/STM32L0xx_HAL_Driver/Src/stm32l0xx_hal_flash_ex.c **** #if defined(FLASH_OPTR_BFB2)
 121:Drivers/STM32L0xx_HAL_Driver/Src/stm32l0xx_hal_flash_ex.c **** static HAL_StatusTypeDef  FLASH_OB_BootConfig(uint8_t OB_BOOT);
 122:Drivers/STM32L0xx_HAL_Driver/Src/stm32l0xx_hal_flash_ex.c **** #endif /* FLASH_OPTR_BFB2 */
 123:Drivers/STM32L0xx_HAL_Driver/Src/stm32l0xx_hal_flash_ex.c **** static HAL_StatusTypeDef  FLASH_OB_RDPConfig(uint8_t OB_RDP);
 124:Drivers/STM32L0xx_HAL_Driver/Src/stm32l0xx_hal_flash_ex.c **** static HAL_StatusTypeDef  FLASH_OB_UserConfig(uint8_t OB_IWDG, uint8_t OB_STOP, uint8_t OB_STDBY);
 125:Drivers/STM32L0xx_HAL_Driver/Src/stm32l0xx_hal_flash_ex.c **** static HAL_StatusTypeDef  FLASH_OB_BORConfig(uint8_t OB_BOR);
 126:Drivers/STM32L0xx_HAL_Driver/Src/stm32l0xx_hal_flash_ex.c **** static uint8_t            FLASH_OB_GetRDP(void);
 127:Drivers/STM32L0xx_HAL_Driver/Src/stm32l0xx_hal_flash_ex.c **** static uint8_t            FLASH_OB_GetUser(void);
 128:Drivers/STM32L0xx_HAL_Driver/Src/stm32l0xx_hal_flash_ex.c **** static uint8_t            FLASH_OB_GetBOR(void);
 129:Drivers/STM32L0xx_HAL_Driver/Src/stm32l0xx_hal_flash_ex.c **** static uint8_t            FLASH_OB_GetBOOTBit1(void);
 130:Drivers/STM32L0xx_HAL_Driver/Src/stm32l0xx_hal_flash_ex.c **** static HAL_StatusTypeDef  FLASH_OB_BOOTBit1Config(uint8_t OB_BootBit1);
 131:Drivers/STM32L0xx_HAL_Driver/Src/stm32l0xx_hal_flash_ex.c **** #if defined(STM32L071xx) || defined(STM32L072xx) || defined(STM32L073xx) || defined(STM32L081xx) ||
 132:Drivers/STM32L0xx_HAL_Driver/Src/stm32l0xx_hal_flash_ex.c **** static HAL_StatusTypeDef  FLASH_OB_ProtectedSectorsConfig(uint32_t Sector, uint32_t Sector2, uint32
 133:Drivers/STM32L0xx_HAL_Driver/Src/stm32l0xx_hal_flash_ex.c **** #else
 134:Drivers/STM32L0xx_HAL_Driver/Src/stm32l0xx_hal_flash_ex.c **** static HAL_StatusTypeDef  FLASH_OB_ProtectedSectorsConfig(uint32_t Sector, uint32_t NewState);
 135:Drivers/STM32L0xx_HAL_Driver/Src/stm32l0xx_hal_flash_ex.c **** #endif
 136:Drivers/STM32L0xx_HAL_Driver/Src/stm32l0xx_hal_flash_ex.c **** static uint32_t           FLASH_OB_GetWRP(void);
 137:Drivers/STM32L0xx_HAL_Driver/Src/stm32l0xx_hal_flash_ex.c **** #if defined(STM32L071xx) || defined(STM32L072xx) || defined(STM32L073xx) || defined(STM32L081xx) ||
 138:Drivers/STM32L0xx_HAL_Driver/Src/stm32l0xx_hal_flash_ex.c **** static uint32_t           FLASH_OB_GetWRP2(void);
 139:Drivers/STM32L0xx_HAL_Driver/Src/stm32l0xx_hal_flash_ex.c **** #endif
 140:Drivers/STM32L0xx_HAL_Driver/Src/stm32l0xx_hal_flash_ex.c **** 
 141:Drivers/STM32L0xx_HAL_Driver/Src/stm32l0xx_hal_flash_ex.c **** /**
 142:Drivers/STM32L0xx_HAL_Driver/Src/stm32l0xx_hal_flash_ex.c ****   * @}
 143:Drivers/STM32L0xx_HAL_Driver/Src/stm32l0xx_hal_flash_ex.c ****   */
 144:Drivers/STM32L0xx_HAL_Driver/Src/stm32l0xx_hal_flash_ex.c **** 
 145:Drivers/STM32L0xx_HAL_Driver/Src/stm32l0xx_hal_flash_ex.c **** /* Exported functions ---------------------------------------------------------*/
 146:Drivers/STM32L0xx_HAL_Driver/Src/stm32l0xx_hal_flash_ex.c **** /** @defgroup FLASHEx_Exported_Functions FLASHEx Exported Functions
ARM GAS  /tmp/cc70OH2t.s 			page 4


 147:Drivers/STM32L0xx_HAL_Driver/Src/stm32l0xx_hal_flash_ex.c ****   * @{
 148:Drivers/STM32L0xx_HAL_Driver/Src/stm32l0xx_hal_flash_ex.c ****   */
 149:Drivers/STM32L0xx_HAL_Driver/Src/stm32l0xx_hal_flash_ex.c **** 
 150:Drivers/STM32L0xx_HAL_Driver/Src/stm32l0xx_hal_flash_ex.c **** /** @defgroup FLASHEx_Exported_Functions_Group1 FLASHEx Memory Erasing functions
 151:Drivers/STM32L0xx_HAL_Driver/Src/stm32l0xx_hal_flash_ex.c ****  *  @brief   FLASH Memory Erasing functions
 152:Drivers/STM32L0xx_HAL_Driver/Src/stm32l0xx_hal_flash_ex.c ****  *
 153:Drivers/STM32L0xx_HAL_Driver/Src/stm32l0xx_hal_flash_ex.c **** @verbatim   
 154:Drivers/STM32L0xx_HAL_Driver/Src/stm32l0xx_hal_flash_ex.c ****   ==============================================================================
 155:Drivers/STM32L0xx_HAL_Driver/Src/stm32l0xx_hal_flash_ex.c ****                 ##### FLASH Erasing Programming functions ##### 
 156:Drivers/STM32L0xx_HAL_Driver/Src/stm32l0xx_hal_flash_ex.c ****   ==============================================================================
 157:Drivers/STM32L0xx_HAL_Driver/Src/stm32l0xx_hal_flash_ex.c **** 
 158:Drivers/STM32L0xx_HAL_Driver/Src/stm32l0xx_hal_flash_ex.c ****     [..] The FLASH Memory Erasing functions, includes the following functions:
 159:Drivers/STM32L0xx_HAL_Driver/Src/stm32l0xx_hal_flash_ex.c ****     (+) @ref HAL_FLASHEx_Erase: return only when erase has been done
 160:Drivers/STM32L0xx_HAL_Driver/Src/stm32l0xx_hal_flash_ex.c ****     (+) @ref HAL_FLASHEx_Erase_IT: end of erase is done when @ref HAL_FLASH_EndOfOperationCallback 
 161:Drivers/STM32L0xx_HAL_Driver/Src/stm32l0xx_hal_flash_ex.c ****         is called with parameter 0xFFFFFFFF
 162:Drivers/STM32L0xx_HAL_Driver/Src/stm32l0xx_hal_flash_ex.c **** 
 163:Drivers/STM32L0xx_HAL_Driver/Src/stm32l0xx_hal_flash_ex.c ****     [..] Any operation of erase should follow these steps:
 164:Drivers/STM32L0xx_HAL_Driver/Src/stm32l0xx_hal_flash_ex.c ****     (#) Call the @ref HAL_FLASH_Unlock() function to enable the flash control register and 
 165:Drivers/STM32L0xx_HAL_Driver/Src/stm32l0xx_hal_flash_ex.c ****         program memory access.
 166:Drivers/STM32L0xx_HAL_Driver/Src/stm32l0xx_hal_flash_ex.c ****     (#) Call the desired function to erase page.
 167:Drivers/STM32L0xx_HAL_Driver/Src/stm32l0xx_hal_flash_ex.c ****     (#) Call the @ref HAL_FLASH_Lock() to disable the flash program memory access 
 168:Drivers/STM32L0xx_HAL_Driver/Src/stm32l0xx_hal_flash_ex.c ****        (recommended to protect the FLASH memory against possible unwanted operation).
 169:Drivers/STM32L0xx_HAL_Driver/Src/stm32l0xx_hal_flash_ex.c **** 
 170:Drivers/STM32L0xx_HAL_Driver/Src/stm32l0xx_hal_flash_ex.c **** @endverbatim
 171:Drivers/STM32L0xx_HAL_Driver/Src/stm32l0xx_hal_flash_ex.c ****   * @{
 172:Drivers/STM32L0xx_HAL_Driver/Src/stm32l0xx_hal_flash_ex.c ****   */
 173:Drivers/STM32L0xx_HAL_Driver/Src/stm32l0xx_hal_flash_ex.c ****   
 174:Drivers/STM32L0xx_HAL_Driver/Src/stm32l0xx_hal_flash_ex.c **** /**
 175:Drivers/STM32L0xx_HAL_Driver/Src/stm32l0xx_hal_flash_ex.c ****   * @brief  Erase the specified FLASH memory Pages 
 176:Drivers/STM32L0xx_HAL_Driver/Src/stm32l0xx_hal_flash_ex.c ****   * @note   To correctly run this function, the @ref HAL_FLASH_Unlock() function
 177:Drivers/STM32L0xx_HAL_Driver/Src/stm32l0xx_hal_flash_ex.c ****   *         must be called before.
 178:Drivers/STM32L0xx_HAL_Driver/Src/stm32l0xx_hal_flash_ex.c ****   *         Call the @ref HAL_FLASH_Lock() to disable the flash memory access 
 179:Drivers/STM32L0xx_HAL_Driver/Src/stm32l0xx_hal_flash_ex.c ****   *         (recommended to protect the FLASH memory against possible unwanted operation)
 180:Drivers/STM32L0xx_HAL_Driver/Src/stm32l0xx_hal_flash_ex.c ****   * @param[in]  pEraseInit pointer to an FLASH_EraseInitTypeDef structure that
 181:Drivers/STM32L0xx_HAL_Driver/Src/stm32l0xx_hal_flash_ex.c ****   *         contains the configuration information for the erasing.
 182:Drivers/STM32L0xx_HAL_Driver/Src/stm32l0xx_hal_flash_ex.c ****   * 
 183:Drivers/STM32L0xx_HAL_Driver/Src/stm32l0xx_hal_flash_ex.c ****   * @param[out]  PageError pointer to variable  that
 184:Drivers/STM32L0xx_HAL_Driver/Src/stm32l0xx_hal_flash_ex.c ****   *         contains the configuration information on faulty page in case of error
 185:Drivers/STM32L0xx_HAL_Driver/Src/stm32l0xx_hal_flash_ex.c ****   *         (0xFFFFFFFF means that all the pages have been correctly erased)
 186:Drivers/STM32L0xx_HAL_Driver/Src/stm32l0xx_hal_flash_ex.c ****   * 
 187:Drivers/STM32L0xx_HAL_Driver/Src/stm32l0xx_hal_flash_ex.c ****   * @retval HAL_StatusTypeDef HAL Status
 188:Drivers/STM32L0xx_HAL_Driver/Src/stm32l0xx_hal_flash_ex.c ****   */
 189:Drivers/STM32L0xx_HAL_Driver/Src/stm32l0xx_hal_flash_ex.c **** HAL_StatusTypeDef HAL_FLASHEx_Erase(FLASH_EraseInitTypeDef *pEraseInit, uint32_t *PageError)
 190:Drivers/STM32L0xx_HAL_Driver/Src/stm32l0xx_hal_flash_ex.c **** {
 191:Drivers/STM32L0xx_HAL_Driver/Src/stm32l0xx_hal_flash_ex.c ****   HAL_StatusTypeDef status = HAL_ERROR;
 192:Drivers/STM32L0xx_HAL_Driver/Src/stm32l0xx_hal_flash_ex.c ****   uint32_t address = 0U;
 193:Drivers/STM32L0xx_HAL_Driver/Src/stm32l0xx_hal_flash_ex.c ****   
 194:Drivers/STM32L0xx_HAL_Driver/Src/stm32l0xx_hal_flash_ex.c ****   /* Process Locked */
 195:Drivers/STM32L0xx_HAL_Driver/Src/stm32l0xx_hal_flash_ex.c ****   __HAL_LOCK(&pFlash);
 196:Drivers/STM32L0xx_HAL_Driver/Src/stm32l0xx_hal_flash_ex.c **** 
 197:Drivers/STM32L0xx_HAL_Driver/Src/stm32l0xx_hal_flash_ex.c ****   /* Wait for last operation to be completed */
 198:Drivers/STM32L0xx_HAL_Driver/Src/stm32l0xx_hal_flash_ex.c ****   status = FLASH_WaitForLastOperation(FLASH_TIMEOUT_VALUE);
 199:Drivers/STM32L0xx_HAL_Driver/Src/stm32l0xx_hal_flash_ex.c **** 
 200:Drivers/STM32L0xx_HAL_Driver/Src/stm32l0xx_hal_flash_ex.c ****   if (status == HAL_OK)
 201:Drivers/STM32L0xx_HAL_Driver/Src/stm32l0xx_hal_flash_ex.c ****   {
 202:Drivers/STM32L0xx_HAL_Driver/Src/stm32l0xx_hal_flash_ex.c ****     /*Initialization of PageError variable*/
 203:Drivers/STM32L0xx_HAL_Driver/Src/stm32l0xx_hal_flash_ex.c ****     *PageError = 0xFFFFFFFFU;
ARM GAS  /tmp/cc70OH2t.s 			page 5


 204:Drivers/STM32L0xx_HAL_Driver/Src/stm32l0xx_hal_flash_ex.c **** 
 205:Drivers/STM32L0xx_HAL_Driver/Src/stm32l0xx_hal_flash_ex.c ****     /* Check the parameters */
 206:Drivers/STM32L0xx_HAL_Driver/Src/stm32l0xx_hal_flash_ex.c ****     assert_param(IS_NBPAGES(pEraseInit->NbPages));
 207:Drivers/STM32L0xx_HAL_Driver/Src/stm32l0xx_hal_flash_ex.c ****     assert_param(IS_FLASH_TYPEERASE(pEraseInit->TypeErase));
 208:Drivers/STM32L0xx_HAL_Driver/Src/stm32l0xx_hal_flash_ex.c ****     assert_param(IS_FLASH_PROGRAM_ADDRESS(pEraseInit->PageAddress));
 209:Drivers/STM32L0xx_HAL_Driver/Src/stm32l0xx_hal_flash_ex.c ****     assert_param(IS_FLASH_PROGRAM_ADDRESS((pEraseInit->PageAddress & ~(FLASH_PAGE_SIZE - 1U)) + pEr
 210:Drivers/STM32L0xx_HAL_Driver/Src/stm32l0xx_hal_flash_ex.c **** 
 211:Drivers/STM32L0xx_HAL_Driver/Src/stm32l0xx_hal_flash_ex.c ****     /* Erase page by page to be done*/
 212:Drivers/STM32L0xx_HAL_Driver/Src/stm32l0xx_hal_flash_ex.c ****     for(address = pEraseInit->PageAddress; 
 213:Drivers/STM32L0xx_HAL_Driver/Src/stm32l0xx_hal_flash_ex.c ****         address < ((pEraseInit->NbPages * FLASH_PAGE_SIZE) + pEraseInit->PageAddress);
 214:Drivers/STM32L0xx_HAL_Driver/Src/stm32l0xx_hal_flash_ex.c ****         address += FLASH_PAGE_SIZE)
 215:Drivers/STM32L0xx_HAL_Driver/Src/stm32l0xx_hal_flash_ex.c ****     {
 216:Drivers/STM32L0xx_HAL_Driver/Src/stm32l0xx_hal_flash_ex.c ****       FLASH_PageErase(address);
 217:Drivers/STM32L0xx_HAL_Driver/Src/stm32l0xx_hal_flash_ex.c **** 
 218:Drivers/STM32L0xx_HAL_Driver/Src/stm32l0xx_hal_flash_ex.c ****       /* Wait for last operation to be completed */
 219:Drivers/STM32L0xx_HAL_Driver/Src/stm32l0xx_hal_flash_ex.c ****       status = FLASH_WaitForLastOperation(FLASH_TIMEOUT_VALUE);
 220:Drivers/STM32L0xx_HAL_Driver/Src/stm32l0xx_hal_flash_ex.c **** 
 221:Drivers/STM32L0xx_HAL_Driver/Src/stm32l0xx_hal_flash_ex.c ****       /* If the erase operation is completed, disable the ERASE Bit */
 222:Drivers/STM32L0xx_HAL_Driver/Src/stm32l0xx_hal_flash_ex.c ****       CLEAR_BIT(FLASH->PECR, FLASH_PECR_PROG);
 223:Drivers/STM32L0xx_HAL_Driver/Src/stm32l0xx_hal_flash_ex.c ****       CLEAR_BIT(FLASH->PECR, FLASH_PECR_ERASE);
 224:Drivers/STM32L0xx_HAL_Driver/Src/stm32l0xx_hal_flash_ex.c **** 
 225:Drivers/STM32L0xx_HAL_Driver/Src/stm32l0xx_hal_flash_ex.c ****       if (status != HAL_OK) 
 226:Drivers/STM32L0xx_HAL_Driver/Src/stm32l0xx_hal_flash_ex.c ****       {
 227:Drivers/STM32L0xx_HAL_Driver/Src/stm32l0xx_hal_flash_ex.c ****         /* In case of error, stop erase procedure and return the faulty address */
 228:Drivers/STM32L0xx_HAL_Driver/Src/stm32l0xx_hal_flash_ex.c ****         *PageError = address;
 229:Drivers/STM32L0xx_HAL_Driver/Src/stm32l0xx_hal_flash_ex.c ****         break;
 230:Drivers/STM32L0xx_HAL_Driver/Src/stm32l0xx_hal_flash_ex.c ****       }
 231:Drivers/STM32L0xx_HAL_Driver/Src/stm32l0xx_hal_flash_ex.c ****     }
 232:Drivers/STM32L0xx_HAL_Driver/Src/stm32l0xx_hal_flash_ex.c ****   }
 233:Drivers/STM32L0xx_HAL_Driver/Src/stm32l0xx_hal_flash_ex.c **** 
 234:Drivers/STM32L0xx_HAL_Driver/Src/stm32l0xx_hal_flash_ex.c ****   /* Process Unlocked */
 235:Drivers/STM32L0xx_HAL_Driver/Src/stm32l0xx_hal_flash_ex.c ****   __HAL_UNLOCK(&pFlash);
 236:Drivers/STM32L0xx_HAL_Driver/Src/stm32l0xx_hal_flash_ex.c **** 
 237:Drivers/STM32L0xx_HAL_Driver/Src/stm32l0xx_hal_flash_ex.c ****   return status;
 238:Drivers/STM32L0xx_HAL_Driver/Src/stm32l0xx_hal_flash_ex.c **** }
 239:Drivers/STM32L0xx_HAL_Driver/Src/stm32l0xx_hal_flash_ex.c **** 
 240:Drivers/STM32L0xx_HAL_Driver/Src/stm32l0xx_hal_flash_ex.c **** /**
 241:Drivers/STM32L0xx_HAL_Driver/Src/stm32l0xx_hal_flash_ex.c ****   * @brief  Perform a page erase of the specified FLASH memory pages  with interrupt enabled
 242:Drivers/STM32L0xx_HAL_Driver/Src/stm32l0xx_hal_flash_ex.c ****   * @note   To correctly run this function, the @ref HAL_FLASH_Unlock() function
 243:Drivers/STM32L0xx_HAL_Driver/Src/stm32l0xx_hal_flash_ex.c ****   *         must be called before.
 244:Drivers/STM32L0xx_HAL_Driver/Src/stm32l0xx_hal_flash_ex.c ****   *         Call the @ref HAL_FLASH_Lock() to disable the flash memory access 
 245:Drivers/STM32L0xx_HAL_Driver/Src/stm32l0xx_hal_flash_ex.c ****   *         (recommended to protect the FLASH memory against possible unwanted operation)
 246:Drivers/STM32L0xx_HAL_Driver/Src/stm32l0xx_hal_flash_ex.c ****   *          End of erase is done when @ref HAL_FLASH_EndOfOperationCallback is called with paramet
 247:Drivers/STM32L0xx_HAL_Driver/Src/stm32l0xx_hal_flash_ex.c ****   *          0xFFFFFFFF
 248:Drivers/STM32L0xx_HAL_Driver/Src/stm32l0xx_hal_flash_ex.c ****   * @param  pEraseInit pointer to an FLASH_EraseInitTypeDef structure that
 249:Drivers/STM32L0xx_HAL_Driver/Src/stm32l0xx_hal_flash_ex.c ****   *         contains the configuration information for the erasing.
 250:Drivers/STM32L0xx_HAL_Driver/Src/stm32l0xx_hal_flash_ex.c ****   * 
 251:Drivers/STM32L0xx_HAL_Driver/Src/stm32l0xx_hal_flash_ex.c ****   * @retval HAL_StatusTypeDef HAL Status
 252:Drivers/STM32L0xx_HAL_Driver/Src/stm32l0xx_hal_flash_ex.c ****   */
 253:Drivers/STM32L0xx_HAL_Driver/Src/stm32l0xx_hal_flash_ex.c **** HAL_StatusTypeDef HAL_FLASHEx_Erase_IT(FLASH_EraseInitTypeDef *pEraseInit)
 254:Drivers/STM32L0xx_HAL_Driver/Src/stm32l0xx_hal_flash_ex.c **** {
 255:Drivers/STM32L0xx_HAL_Driver/Src/stm32l0xx_hal_flash_ex.c ****   HAL_StatusTypeDef status = HAL_ERROR;
 256:Drivers/STM32L0xx_HAL_Driver/Src/stm32l0xx_hal_flash_ex.c **** 
 257:Drivers/STM32L0xx_HAL_Driver/Src/stm32l0xx_hal_flash_ex.c ****   /* If procedure already ongoing, reject the next one */
 258:Drivers/STM32L0xx_HAL_Driver/Src/stm32l0xx_hal_flash_ex.c ****   if (pFlash.ProcedureOnGoing != FLASH_PROC_NONE)
 259:Drivers/STM32L0xx_HAL_Driver/Src/stm32l0xx_hal_flash_ex.c ****   {
 260:Drivers/STM32L0xx_HAL_Driver/Src/stm32l0xx_hal_flash_ex.c ****     return HAL_ERROR;
ARM GAS  /tmp/cc70OH2t.s 			page 6


 261:Drivers/STM32L0xx_HAL_Driver/Src/stm32l0xx_hal_flash_ex.c ****   }
 262:Drivers/STM32L0xx_HAL_Driver/Src/stm32l0xx_hal_flash_ex.c **** 
 263:Drivers/STM32L0xx_HAL_Driver/Src/stm32l0xx_hal_flash_ex.c ****   /* Check the parameters */
 264:Drivers/STM32L0xx_HAL_Driver/Src/stm32l0xx_hal_flash_ex.c ****   assert_param(IS_NBPAGES(pEraseInit->NbPages));
 265:Drivers/STM32L0xx_HAL_Driver/Src/stm32l0xx_hal_flash_ex.c ****   assert_param(IS_FLASH_TYPEERASE(pEraseInit->TypeErase));
 266:Drivers/STM32L0xx_HAL_Driver/Src/stm32l0xx_hal_flash_ex.c ****   assert_param(IS_FLASH_PROGRAM_ADDRESS(pEraseInit->PageAddress));
 267:Drivers/STM32L0xx_HAL_Driver/Src/stm32l0xx_hal_flash_ex.c ****   assert_param(IS_FLASH_PROGRAM_ADDRESS((pEraseInit->PageAddress & ~(FLASH_PAGE_SIZE - 1)) + pErase
 268:Drivers/STM32L0xx_HAL_Driver/Src/stm32l0xx_hal_flash_ex.c **** 
 269:Drivers/STM32L0xx_HAL_Driver/Src/stm32l0xx_hal_flash_ex.c ****   /* Process Locked */
 270:Drivers/STM32L0xx_HAL_Driver/Src/stm32l0xx_hal_flash_ex.c ****   __HAL_LOCK(&pFlash);
 271:Drivers/STM32L0xx_HAL_Driver/Src/stm32l0xx_hal_flash_ex.c **** 
 272:Drivers/STM32L0xx_HAL_Driver/Src/stm32l0xx_hal_flash_ex.c ****   /* Wait for last operation to be completed */
 273:Drivers/STM32L0xx_HAL_Driver/Src/stm32l0xx_hal_flash_ex.c ****   status = FLASH_WaitForLastOperation(FLASH_TIMEOUT_VALUE);
 274:Drivers/STM32L0xx_HAL_Driver/Src/stm32l0xx_hal_flash_ex.c ****   
 275:Drivers/STM32L0xx_HAL_Driver/Src/stm32l0xx_hal_flash_ex.c ****   if (status == HAL_OK)
 276:Drivers/STM32L0xx_HAL_Driver/Src/stm32l0xx_hal_flash_ex.c ****   {
 277:Drivers/STM32L0xx_HAL_Driver/Src/stm32l0xx_hal_flash_ex.c ****     /* Enable End of FLASH Operation and Error source interrupts */
 278:Drivers/STM32L0xx_HAL_Driver/Src/stm32l0xx_hal_flash_ex.c ****     __HAL_FLASH_ENABLE_IT(FLASH_IT_EOP | FLASH_IT_ERR);
 279:Drivers/STM32L0xx_HAL_Driver/Src/stm32l0xx_hal_flash_ex.c ****     
 280:Drivers/STM32L0xx_HAL_Driver/Src/stm32l0xx_hal_flash_ex.c ****     pFlash.ProcedureOnGoing = FLASH_PROC_PAGEERASE;
 281:Drivers/STM32L0xx_HAL_Driver/Src/stm32l0xx_hal_flash_ex.c ****     pFlash.NbPagesToErase = pEraseInit->NbPages;
 282:Drivers/STM32L0xx_HAL_Driver/Src/stm32l0xx_hal_flash_ex.c ****     pFlash.Page = pEraseInit->PageAddress;
 283:Drivers/STM32L0xx_HAL_Driver/Src/stm32l0xx_hal_flash_ex.c **** 
 284:Drivers/STM32L0xx_HAL_Driver/Src/stm32l0xx_hal_flash_ex.c ****     /*Erase 1st page and wait for IT*/
 285:Drivers/STM32L0xx_HAL_Driver/Src/stm32l0xx_hal_flash_ex.c ****     FLASH_PageErase(pEraseInit->PageAddress);
 286:Drivers/STM32L0xx_HAL_Driver/Src/stm32l0xx_hal_flash_ex.c ****   }
 287:Drivers/STM32L0xx_HAL_Driver/Src/stm32l0xx_hal_flash_ex.c ****   else
 288:Drivers/STM32L0xx_HAL_Driver/Src/stm32l0xx_hal_flash_ex.c ****   {
 289:Drivers/STM32L0xx_HAL_Driver/Src/stm32l0xx_hal_flash_ex.c ****     /* Process Unlocked */
 290:Drivers/STM32L0xx_HAL_Driver/Src/stm32l0xx_hal_flash_ex.c ****     __HAL_UNLOCK(&pFlash);
 291:Drivers/STM32L0xx_HAL_Driver/Src/stm32l0xx_hal_flash_ex.c ****   }
 292:Drivers/STM32L0xx_HAL_Driver/Src/stm32l0xx_hal_flash_ex.c **** 
 293:Drivers/STM32L0xx_HAL_Driver/Src/stm32l0xx_hal_flash_ex.c ****   return status;
 294:Drivers/STM32L0xx_HAL_Driver/Src/stm32l0xx_hal_flash_ex.c **** }
 295:Drivers/STM32L0xx_HAL_Driver/Src/stm32l0xx_hal_flash_ex.c **** 
 296:Drivers/STM32L0xx_HAL_Driver/Src/stm32l0xx_hal_flash_ex.c **** /**
 297:Drivers/STM32L0xx_HAL_Driver/Src/stm32l0xx_hal_flash_ex.c ****   * @}
 298:Drivers/STM32L0xx_HAL_Driver/Src/stm32l0xx_hal_flash_ex.c ****   */
 299:Drivers/STM32L0xx_HAL_Driver/Src/stm32l0xx_hal_flash_ex.c **** 
 300:Drivers/STM32L0xx_HAL_Driver/Src/stm32l0xx_hal_flash_ex.c **** /** @defgroup FLASHEx_Exported_Functions_Group2 Option Bytes Programming functions
 301:Drivers/STM32L0xx_HAL_Driver/Src/stm32l0xx_hal_flash_ex.c ****  *  @brief   Option Bytes Programming functions
 302:Drivers/STM32L0xx_HAL_Driver/Src/stm32l0xx_hal_flash_ex.c ****  *
 303:Drivers/STM32L0xx_HAL_Driver/Src/stm32l0xx_hal_flash_ex.c **** @verbatim   
 304:Drivers/STM32L0xx_HAL_Driver/Src/stm32l0xx_hal_flash_ex.c ****   ==============================================================================
 305:Drivers/STM32L0xx_HAL_Driver/Src/stm32l0xx_hal_flash_ex.c ****                 ##### Option Bytes Programming functions ##### 
 306:Drivers/STM32L0xx_HAL_Driver/Src/stm32l0xx_hal_flash_ex.c ****   ==============================================================================  
 307:Drivers/STM32L0xx_HAL_Driver/Src/stm32l0xx_hal_flash_ex.c **** 
 308:Drivers/STM32L0xx_HAL_Driver/Src/stm32l0xx_hal_flash_ex.c ****     [..] Any operation of erase or program should follow these steps:
 309:Drivers/STM32L0xx_HAL_Driver/Src/stm32l0xx_hal_flash_ex.c ****     (#) Call the @ref HAL_FLASH_OB_Unlock() function to enable the Flash option control 
 310:Drivers/STM32L0xx_HAL_Driver/Src/stm32l0xx_hal_flash_ex.c ****         register access.
 311:Drivers/STM32L0xx_HAL_Driver/Src/stm32l0xx_hal_flash_ex.c ****     (#) Call following function to program the desired option bytes.
 312:Drivers/STM32L0xx_HAL_Driver/Src/stm32l0xx_hal_flash_ex.c ****         (++) @ref HAL_FLASHEx_OBProgram:
 313:Drivers/STM32L0xx_HAL_Driver/Src/stm32l0xx_hal_flash_ex.c ****          - To Enable/Disable the desired sector write protection.
 314:Drivers/STM32L0xx_HAL_Driver/Src/stm32l0xx_hal_flash_ex.c ****          - To set the desired read Protection Level.
 315:Drivers/STM32L0xx_HAL_Driver/Src/stm32l0xx_hal_flash_ex.c ****          - To configure the user option Bytes: IWDG, STOP and the Standby.
 316:Drivers/STM32L0xx_HAL_Driver/Src/stm32l0xx_hal_flash_ex.c ****          - To Set the BOR level.
 317:Drivers/STM32L0xx_HAL_Driver/Src/stm32l0xx_hal_flash_ex.c ****     (#) Once all needed option bytes to be programmed are correctly written, call the
ARM GAS  /tmp/cc70OH2t.s 			page 7


 318:Drivers/STM32L0xx_HAL_Driver/Src/stm32l0xx_hal_flash_ex.c ****         @ref HAL_FLASH_OB_Launch(void) function to launch the Option Bytes programming process.
 319:Drivers/STM32L0xx_HAL_Driver/Src/stm32l0xx_hal_flash_ex.c ****     (#) Call the @ref HAL_FLASH_OB_Lock() to disable the Flash option control register access (reco
 320:Drivers/STM32L0xx_HAL_Driver/Src/stm32l0xx_hal_flash_ex.c ****         to protect the option Bytes against possible unwanted operations).
 321:Drivers/STM32L0xx_HAL_Driver/Src/stm32l0xx_hal_flash_ex.c **** 
 322:Drivers/STM32L0xx_HAL_Driver/Src/stm32l0xx_hal_flash_ex.c ****     [..] Proprietary code Read Out Protection (PcROP):
 323:Drivers/STM32L0xx_HAL_Driver/Src/stm32l0xx_hal_flash_ex.c ****     (#) The PcROP sector is selected by using the same option bytes as the Write
 324:Drivers/STM32L0xx_HAL_Driver/Src/stm32l0xx_hal_flash_ex.c ****         protection (nWRPi bits). As a result, these 2 options are exclusive each other.
 325:Drivers/STM32L0xx_HAL_Driver/Src/stm32l0xx_hal_flash_ex.c ****     (#) In order to activate the PcROP (change the function of the nWRPi option bits), 
 326:Drivers/STM32L0xx_HAL_Driver/Src/stm32l0xx_hal_flash_ex.c ****         the WPRMOD option bit must be activated.
 327:Drivers/STM32L0xx_HAL_Driver/Src/stm32l0xx_hal_flash_ex.c ****     (#) The active value of nWRPi bits is inverted when PCROP mode is active, this
 328:Drivers/STM32L0xx_HAL_Driver/Src/stm32l0xx_hal_flash_ex.c ****         means: if WPRMOD = 1 and nWRPi = 1 (default value), then the user sector "i"
 329:Drivers/STM32L0xx_HAL_Driver/Src/stm32l0xx_hal_flash_ex.c ****         is read/write protected.
 330:Drivers/STM32L0xx_HAL_Driver/Src/stm32l0xx_hal_flash_ex.c ****     (#) To activate PCROP mode for Flash sector(s), you need to call the following function:
 331:Drivers/STM32L0xx_HAL_Driver/Src/stm32l0xx_hal_flash_ex.c ****         (++) @ref HAL_FLASHEx_AdvOBProgram in selecting sectors to be read/write protected
 332:Drivers/STM32L0xx_HAL_Driver/Src/stm32l0xx_hal_flash_ex.c ****         (++) @ref HAL_FLASHEx_OB_SelectPCROP to enable the read/write protection
 333:Drivers/STM32L0xx_HAL_Driver/Src/stm32l0xx_hal_flash_ex.c **** 
 334:Drivers/STM32L0xx_HAL_Driver/Src/stm32l0xx_hal_flash_ex.c **** @endverbatim
 335:Drivers/STM32L0xx_HAL_Driver/Src/stm32l0xx_hal_flash_ex.c ****   * @{
 336:Drivers/STM32L0xx_HAL_Driver/Src/stm32l0xx_hal_flash_ex.c ****   */
 337:Drivers/STM32L0xx_HAL_Driver/Src/stm32l0xx_hal_flash_ex.c **** 
 338:Drivers/STM32L0xx_HAL_Driver/Src/stm32l0xx_hal_flash_ex.c **** /**
 339:Drivers/STM32L0xx_HAL_Driver/Src/stm32l0xx_hal_flash_ex.c ****   * @brief  Program option bytes
 340:Drivers/STM32L0xx_HAL_Driver/Src/stm32l0xx_hal_flash_ex.c ****   * @param  pOBInit pointer to an FLASH_OBInitStruct structure that
 341:Drivers/STM32L0xx_HAL_Driver/Src/stm32l0xx_hal_flash_ex.c ****   *         contains the configuration information for the programming.
 342:Drivers/STM32L0xx_HAL_Driver/Src/stm32l0xx_hal_flash_ex.c ****   * 
 343:Drivers/STM32L0xx_HAL_Driver/Src/stm32l0xx_hal_flash_ex.c ****   * @retval HAL_StatusTypeDef HAL Status
 344:Drivers/STM32L0xx_HAL_Driver/Src/stm32l0xx_hal_flash_ex.c ****   */
 345:Drivers/STM32L0xx_HAL_Driver/Src/stm32l0xx_hal_flash_ex.c **** HAL_StatusTypeDef HAL_FLASHEx_OBProgram(FLASH_OBProgramInitTypeDef *pOBInit)
 346:Drivers/STM32L0xx_HAL_Driver/Src/stm32l0xx_hal_flash_ex.c **** {
 347:Drivers/STM32L0xx_HAL_Driver/Src/stm32l0xx_hal_flash_ex.c ****   HAL_StatusTypeDef status = HAL_ERROR;
 348:Drivers/STM32L0xx_HAL_Driver/Src/stm32l0xx_hal_flash_ex.c ****   
 349:Drivers/STM32L0xx_HAL_Driver/Src/stm32l0xx_hal_flash_ex.c ****   /* Process Locked */
 350:Drivers/STM32L0xx_HAL_Driver/Src/stm32l0xx_hal_flash_ex.c ****   __HAL_LOCK(&pFlash);
 351:Drivers/STM32L0xx_HAL_Driver/Src/stm32l0xx_hal_flash_ex.c **** 
 352:Drivers/STM32L0xx_HAL_Driver/Src/stm32l0xx_hal_flash_ex.c ****   /* Check the parameters */
 353:Drivers/STM32L0xx_HAL_Driver/Src/stm32l0xx_hal_flash_ex.c ****   assert_param(IS_OPTIONBYTE(pOBInit->OptionType));
 354:Drivers/STM32L0xx_HAL_Driver/Src/stm32l0xx_hal_flash_ex.c **** 
 355:Drivers/STM32L0xx_HAL_Driver/Src/stm32l0xx_hal_flash_ex.c ****   /*Write protection configuration*/
 356:Drivers/STM32L0xx_HAL_Driver/Src/stm32l0xx_hal_flash_ex.c ****   if((pOBInit->OptionType & OPTIONBYTE_WRP) == OPTIONBYTE_WRP)
 357:Drivers/STM32L0xx_HAL_Driver/Src/stm32l0xx_hal_flash_ex.c ****   {
 358:Drivers/STM32L0xx_HAL_Driver/Src/stm32l0xx_hal_flash_ex.c ****     assert_param(IS_WRPSTATE(pOBInit->WRPState));
 359:Drivers/STM32L0xx_HAL_Driver/Src/stm32l0xx_hal_flash_ex.c **** #if defined(STM32L071xx) || defined(STM32L072xx) || defined(STM32L073xx) || defined(STM32L081xx) ||
 360:Drivers/STM32L0xx_HAL_Driver/Src/stm32l0xx_hal_flash_ex.c ****     status = FLASH_OB_ProtectedSectorsConfig(pOBInit->WRPSector, pOBInit->WRPSector2, pOBInit->WRPS
 361:Drivers/STM32L0xx_HAL_Driver/Src/stm32l0xx_hal_flash_ex.c **** #else
 362:Drivers/STM32L0xx_HAL_Driver/Src/stm32l0xx_hal_flash_ex.c ****     status = FLASH_OB_ProtectedSectorsConfig(pOBInit->WRPSector, pOBInit->WRPState);
 363:Drivers/STM32L0xx_HAL_Driver/Src/stm32l0xx_hal_flash_ex.c **** #endif
 364:Drivers/STM32L0xx_HAL_Driver/Src/stm32l0xx_hal_flash_ex.c ****     if (status != HAL_OK)
 365:Drivers/STM32L0xx_HAL_Driver/Src/stm32l0xx_hal_flash_ex.c ****     {
 366:Drivers/STM32L0xx_HAL_Driver/Src/stm32l0xx_hal_flash_ex.c ****       /* Process Unlocked */
 367:Drivers/STM32L0xx_HAL_Driver/Src/stm32l0xx_hal_flash_ex.c ****       __HAL_UNLOCK(&pFlash);
 368:Drivers/STM32L0xx_HAL_Driver/Src/stm32l0xx_hal_flash_ex.c ****       return status;
 369:Drivers/STM32L0xx_HAL_Driver/Src/stm32l0xx_hal_flash_ex.c ****     }
 370:Drivers/STM32L0xx_HAL_Driver/Src/stm32l0xx_hal_flash_ex.c ****   }
 371:Drivers/STM32L0xx_HAL_Driver/Src/stm32l0xx_hal_flash_ex.c ****   
 372:Drivers/STM32L0xx_HAL_Driver/Src/stm32l0xx_hal_flash_ex.c ****   /* Read protection configuration*/
 373:Drivers/STM32L0xx_HAL_Driver/Src/stm32l0xx_hal_flash_ex.c ****   if((pOBInit->OptionType & OPTIONBYTE_RDP) == OPTIONBYTE_RDP)
 374:Drivers/STM32L0xx_HAL_Driver/Src/stm32l0xx_hal_flash_ex.c ****   {
ARM GAS  /tmp/cc70OH2t.s 			page 8


 375:Drivers/STM32L0xx_HAL_Driver/Src/stm32l0xx_hal_flash_ex.c ****     status = FLASH_OB_RDPConfig(pOBInit->RDPLevel);
 376:Drivers/STM32L0xx_HAL_Driver/Src/stm32l0xx_hal_flash_ex.c ****     if (status != HAL_OK)
 377:Drivers/STM32L0xx_HAL_Driver/Src/stm32l0xx_hal_flash_ex.c ****     {
 378:Drivers/STM32L0xx_HAL_Driver/Src/stm32l0xx_hal_flash_ex.c ****       /* Process Unlocked */
 379:Drivers/STM32L0xx_HAL_Driver/Src/stm32l0xx_hal_flash_ex.c ****       __HAL_UNLOCK(&pFlash);
 380:Drivers/STM32L0xx_HAL_Driver/Src/stm32l0xx_hal_flash_ex.c ****       return status;
 381:Drivers/STM32L0xx_HAL_Driver/Src/stm32l0xx_hal_flash_ex.c ****     }
 382:Drivers/STM32L0xx_HAL_Driver/Src/stm32l0xx_hal_flash_ex.c ****   }
 383:Drivers/STM32L0xx_HAL_Driver/Src/stm32l0xx_hal_flash_ex.c ****   
 384:Drivers/STM32L0xx_HAL_Driver/Src/stm32l0xx_hal_flash_ex.c ****   /* USER  configuration*/
 385:Drivers/STM32L0xx_HAL_Driver/Src/stm32l0xx_hal_flash_ex.c ****   if((pOBInit->OptionType & OPTIONBYTE_USER) == OPTIONBYTE_USER)
 386:Drivers/STM32L0xx_HAL_Driver/Src/stm32l0xx_hal_flash_ex.c ****   {
 387:Drivers/STM32L0xx_HAL_Driver/Src/stm32l0xx_hal_flash_ex.c ****     status = FLASH_OB_UserConfig(pOBInit->USERConfig & OB_IWDG_SW, 
 388:Drivers/STM32L0xx_HAL_Driver/Src/stm32l0xx_hal_flash_ex.c ****                                  pOBInit->USERConfig & OB_STOP_NORST,
 389:Drivers/STM32L0xx_HAL_Driver/Src/stm32l0xx_hal_flash_ex.c ****                                  pOBInit->USERConfig & OB_STDBY_NORST);
 390:Drivers/STM32L0xx_HAL_Driver/Src/stm32l0xx_hal_flash_ex.c ****     if (status != HAL_OK)
 391:Drivers/STM32L0xx_HAL_Driver/Src/stm32l0xx_hal_flash_ex.c ****     {
 392:Drivers/STM32L0xx_HAL_Driver/Src/stm32l0xx_hal_flash_ex.c ****       /* Process Unlocked */
 393:Drivers/STM32L0xx_HAL_Driver/Src/stm32l0xx_hal_flash_ex.c ****       __HAL_UNLOCK(&pFlash);
 394:Drivers/STM32L0xx_HAL_Driver/Src/stm32l0xx_hal_flash_ex.c ****       return status;
 395:Drivers/STM32L0xx_HAL_Driver/Src/stm32l0xx_hal_flash_ex.c ****     }
 396:Drivers/STM32L0xx_HAL_Driver/Src/stm32l0xx_hal_flash_ex.c ****   }
 397:Drivers/STM32L0xx_HAL_Driver/Src/stm32l0xx_hal_flash_ex.c **** 
 398:Drivers/STM32L0xx_HAL_Driver/Src/stm32l0xx_hal_flash_ex.c ****   /* BOR Level  configuration*/
 399:Drivers/STM32L0xx_HAL_Driver/Src/stm32l0xx_hal_flash_ex.c ****   if((pOBInit->OptionType & OPTIONBYTE_BOR) == OPTIONBYTE_BOR)
 400:Drivers/STM32L0xx_HAL_Driver/Src/stm32l0xx_hal_flash_ex.c ****   {
 401:Drivers/STM32L0xx_HAL_Driver/Src/stm32l0xx_hal_flash_ex.c ****     status = FLASH_OB_BORConfig(pOBInit->BORLevel);
 402:Drivers/STM32L0xx_HAL_Driver/Src/stm32l0xx_hal_flash_ex.c ****     if (status != HAL_OK)
 403:Drivers/STM32L0xx_HAL_Driver/Src/stm32l0xx_hal_flash_ex.c ****     {
 404:Drivers/STM32L0xx_HAL_Driver/Src/stm32l0xx_hal_flash_ex.c ****       /* Process Unlocked */
 405:Drivers/STM32L0xx_HAL_Driver/Src/stm32l0xx_hal_flash_ex.c ****       __HAL_UNLOCK(&pFlash);
 406:Drivers/STM32L0xx_HAL_Driver/Src/stm32l0xx_hal_flash_ex.c ****       return status;
 407:Drivers/STM32L0xx_HAL_Driver/Src/stm32l0xx_hal_flash_ex.c ****     }
 408:Drivers/STM32L0xx_HAL_Driver/Src/stm32l0xx_hal_flash_ex.c ****   }
 409:Drivers/STM32L0xx_HAL_Driver/Src/stm32l0xx_hal_flash_ex.c **** 
 410:Drivers/STM32L0xx_HAL_Driver/Src/stm32l0xx_hal_flash_ex.c ****   /* Program BOOT Bit1 config option byte */
 411:Drivers/STM32L0xx_HAL_Driver/Src/stm32l0xx_hal_flash_ex.c ****   if ((pOBInit->OptionType & OPTIONBYTE_BOOT_BIT1) == OPTIONBYTE_BOOT_BIT1)
 412:Drivers/STM32L0xx_HAL_Driver/Src/stm32l0xx_hal_flash_ex.c ****   {
 413:Drivers/STM32L0xx_HAL_Driver/Src/stm32l0xx_hal_flash_ex.c ****     status = FLASH_OB_BOOTBit1Config(pOBInit->BOOTBit1Config);
 414:Drivers/STM32L0xx_HAL_Driver/Src/stm32l0xx_hal_flash_ex.c ****   }
 415:Drivers/STM32L0xx_HAL_Driver/Src/stm32l0xx_hal_flash_ex.c ****   /* Process Unlocked */
 416:Drivers/STM32L0xx_HAL_Driver/Src/stm32l0xx_hal_flash_ex.c ****   __HAL_UNLOCK(&pFlash);
 417:Drivers/STM32L0xx_HAL_Driver/Src/stm32l0xx_hal_flash_ex.c **** 
 418:Drivers/STM32L0xx_HAL_Driver/Src/stm32l0xx_hal_flash_ex.c ****   return status;
 419:Drivers/STM32L0xx_HAL_Driver/Src/stm32l0xx_hal_flash_ex.c **** }
 420:Drivers/STM32L0xx_HAL_Driver/Src/stm32l0xx_hal_flash_ex.c **** 
 421:Drivers/STM32L0xx_HAL_Driver/Src/stm32l0xx_hal_flash_ex.c **** /**
 422:Drivers/STM32L0xx_HAL_Driver/Src/stm32l0xx_hal_flash_ex.c ****   * @brief   Get the Option byte configuration
 423:Drivers/STM32L0xx_HAL_Driver/Src/stm32l0xx_hal_flash_ex.c ****   * @param  pOBInit pointer to an FLASH_OBInitStruct structure that
 424:Drivers/STM32L0xx_HAL_Driver/Src/stm32l0xx_hal_flash_ex.c ****   *         contains the configuration information for the programming.
 425:Drivers/STM32L0xx_HAL_Driver/Src/stm32l0xx_hal_flash_ex.c ****   * 
 426:Drivers/STM32L0xx_HAL_Driver/Src/stm32l0xx_hal_flash_ex.c ****   * @retval None
 427:Drivers/STM32L0xx_HAL_Driver/Src/stm32l0xx_hal_flash_ex.c ****   */
 428:Drivers/STM32L0xx_HAL_Driver/Src/stm32l0xx_hal_flash_ex.c **** void HAL_FLASHEx_OBGetConfig(FLASH_OBProgramInitTypeDef *pOBInit)
 429:Drivers/STM32L0xx_HAL_Driver/Src/stm32l0xx_hal_flash_ex.c **** {
 430:Drivers/STM32L0xx_HAL_Driver/Src/stm32l0xx_hal_flash_ex.c ****   pOBInit->OptionType = OPTIONBYTE_WRP | OPTIONBYTE_RDP | OPTIONBYTE_USER | OPTIONBYTE_BOR;
 431:Drivers/STM32L0xx_HAL_Driver/Src/stm32l0xx_hal_flash_ex.c **** 
ARM GAS  /tmp/cc70OH2t.s 			page 9


 432:Drivers/STM32L0xx_HAL_Driver/Src/stm32l0xx_hal_flash_ex.c ****   /* Get WRP sector */
 433:Drivers/STM32L0xx_HAL_Driver/Src/stm32l0xx_hal_flash_ex.c ****   pOBInit->WRPSector = FLASH_OB_GetWRP();
 434:Drivers/STM32L0xx_HAL_Driver/Src/stm32l0xx_hal_flash_ex.c **** 
 435:Drivers/STM32L0xx_HAL_Driver/Src/stm32l0xx_hal_flash_ex.c **** #if defined(STM32L071xx) || defined(STM32L072xx) || defined(STM32L073xx) || defined(STM32L081xx) ||
 436:Drivers/STM32L0xx_HAL_Driver/Src/stm32l0xx_hal_flash_ex.c ****   pOBInit->WRPSector2 = FLASH_OB_GetWRP2();
 437:Drivers/STM32L0xx_HAL_Driver/Src/stm32l0xx_hal_flash_ex.c **** #endif
 438:Drivers/STM32L0xx_HAL_Driver/Src/stm32l0xx_hal_flash_ex.c **** 
 439:Drivers/STM32L0xx_HAL_Driver/Src/stm32l0xx_hal_flash_ex.c ****   /*Get RDP Level*/
 440:Drivers/STM32L0xx_HAL_Driver/Src/stm32l0xx_hal_flash_ex.c ****   pOBInit->RDPLevel   = FLASH_OB_GetRDP();
 441:Drivers/STM32L0xx_HAL_Driver/Src/stm32l0xx_hal_flash_ex.c **** 
 442:Drivers/STM32L0xx_HAL_Driver/Src/stm32l0xx_hal_flash_ex.c ****   /*Get USER*/
 443:Drivers/STM32L0xx_HAL_Driver/Src/stm32l0xx_hal_flash_ex.c ****   pOBInit->USERConfig = FLASH_OB_GetUser();
 444:Drivers/STM32L0xx_HAL_Driver/Src/stm32l0xx_hal_flash_ex.c **** 
 445:Drivers/STM32L0xx_HAL_Driver/Src/stm32l0xx_hal_flash_ex.c ****   /*Get BOR Level*/
 446:Drivers/STM32L0xx_HAL_Driver/Src/stm32l0xx_hal_flash_ex.c ****   pOBInit->BORLevel   = FLASH_OB_GetBOR();
 447:Drivers/STM32L0xx_HAL_Driver/Src/stm32l0xx_hal_flash_ex.c **** 
 448:Drivers/STM32L0xx_HAL_Driver/Src/stm32l0xx_hal_flash_ex.c ****   /* Get BOOT bit 1 config OB */
 449:Drivers/STM32L0xx_HAL_Driver/Src/stm32l0xx_hal_flash_ex.c ****   pOBInit->BOOTBit1Config = FLASH_OB_GetBOOTBit1();
 450:Drivers/STM32L0xx_HAL_Driver/Src/stm32l0xx_hal_flash_ex.c **** }
 451:Drivers/STM32L0xx_HAL_Driver/Src/stm32l0xx_hal_flash_ex.c **** 
 452:Drivers/STM32L0xx_HAL_Driver/Src/stm32l0xx_hal_flash_ex.c **** #if defined(FLASH_OPTR_WPRMOD) || defined(FLASH_OPTR_BFB2)
 453:Drivers/STM32L0xx_HAL_Driver/Src/stm32l0xx_hal_flash_ex.c ****     
 454:Drivers/STM32L0xx_HAL_Driver/Src/stm32l0xx_hal_flash_ex.c **** /**
 455:Drivers/STM32L0xx_HAL_Driver/Src/stm32l0xx_hal_flash_ex.c ****   * @brief  Program option bytes
 456:Drivers/STM32L0xx_HAL_Driver/Src/stm32l0xx_hal_flash_ex.c ****   * @param  pAdvOBInit pointer to an FLASH_AdvOBProgramInitTypeDef structure that
 457:Drivers/STM32L0xx_HAL_Driver/Src/stm32l0xx_hal_flash_ex.c ****   *         contains the configuration information for the programming.
 458:Drivers/STM32L0xx_HAL_Driver/Src/stm32l0xx_hal_flash_ex.c ****   * 
 459:Drivers/STM32L0xx_HAL_Driver/Src/stm32l0xx_hal_flash_ex.c ****   * @retval HAL_StatusTypeDef HAL Status
 460:Drivers/STM32L0xx_HAL_Driver/Src/stm32l0xx_hal_flash_ex.c ****   */
 461:Drivers/STM32L0xx_HAL_Driver/Src/stm32l0xx_hal_flash_ex.c **** HAL_StatusTypeDef HAL_FLASHEx_AdvOBProgram (FLASH_AdvOBProgramInitTypeDef *pAdvOBInit)
 462:Drivers/STM32L0xx_HAL_Driver/Src/stm32l0xx_hal_flash_ex.c **** {
 463:Drivers/STM32L0xx_HAL_Driver/Src/stm32l0xx_hal_flash_ex.c ****   HAL_StatusTypeDef status = HAL_ERROR;
 464:Drivers/STM32L0xx_HAL_Driver/Src/stm32l0xx_hal_flash_ex.c ****   
 465:Drivers/STM32L0xx_HAL_Driver/Src/stm32l0xx_hal_flash_ex.c ****   /* Check the parameters */
 466:Drivers/STM32L0xx_HAL_Driver/Src/stm32l0xx_hal_flash_ex.c ****   assert_param(IS_OBEX(pAdvOBInit->OptionType));
 467:Drivers/STM32L0xx_HAL_Driver/Src/stm32l0xx_hal_flash_ex.c **** 
 468:Drivers/STM32L0xx_HAL_Driver/Src/stm32l0xx_hal_flash_ex.c **** #if defined(FLASH_OPTR_WPRMOD)
 469:Drivers/STM32L0xx_HAL_Driver/Src/stm32l0xx_hal_flash_ex.c ****     
 470:Drivers/STM32L0xx_HAL_Driver/Src/stm32l0xx_hal_flash_ex.c ****   /* Program PCROP option byte*/
 471:Drivers/STM32L0xx_HAL_Driver/Src/stm32l0xx_hal_flash_ex.c ****   if ((pAdvOBInit->OptionType & OPTIONBYTE_PCROP) == OPTIONBYTE_PCROP)
 472:Drivers/STM32L0xx_HAL_Driver/Src/stm32l0xx_hal_flash_ex.c ****   {
 473:Drivers/STM32L0xx_HAL_Driver/Src/stm32l0xx_hal_flash_ex.c ****     /* Check the parameters */
 474:Drivers/STM32L0xx_HAL_Driver/Src/stm32l0xx_hal_flash_ex.c ****     assert_param(IS_PCROPSTATE(pAdvOBInit->PCROPState));
 475:Drivers/STM32L0xx_HAL_Driver/Src/stm32l0xx_hal_flash_ex.c **** #if defined(STM32L071xx) || defined(STM32L072xx) || defined(STM32L073xx) || defined(STM32L081xx) ||
 476:Drivers/STM32L0xx_HAL_Driver/Src/stm32l0xx_hal_flash_ex.c ****     status = FLASH_OB_ProtectedSectorsConfig(pAdvOBInit->PCROPSector, pAdvOBInit->PCROPSector2, pAd
 477:Drivers/STM32L0xx_HAL_Driver/Src/stm32l0xx_hal_flash_ex.c **** #else
 478:Drivers/STM32L0xx_HAL_Driver/Src/stm32l0xx_hal_flash_ex.c ****     status = FLASH_OB_ProtectedSectorsConfig(pAdvOBInit->PCROPSector, pAdvOBInit->PCROPState);
 479:Drivers/STM32L0xx_HAL_Driver/Src/stm32l0xx_hal_flash_ex.c **** #endif
 480:Drivers/STM32L0xx_HAL_Driver/Src/stm32l0xx_hal_flash_ex.c ****   }
 481:Drivers/STM32L0xx_HAL_Driver/Src/stm32l0xx_hal_flash_ex.c ****   
 482:Drivers/STM32L0xx_HAL_Driver/Src/stm32l0xx_hal_flash_ex.c **** #endif /* FLASH_OPTR_WPRMOD */
 483:Drivers/STM32L0xx_HAL_Driver/Src/stm32l0xx_hal_flash_ex.c **** 
 484:Drivers/STM32L0xx_HAL_Driver/Src/stm32l0xx_hal_flash_ex.c **** #if defined(FLASH_OPTR_BFB2)
 485:Drivers/STM32L0xx_HAL_Driver/Src/stm32l0xx_hal_flash_ex.c ****     
 486:Drivers/STM32L0xx_HAL_Driver/Src/stm32l0xx_hal_flash_ex.c ****   /* Program BOOT config option byte */
 487:Drivers/STM32L0xx_HAL_Driver/Src/stm32l0xx_hal_flash_ex.c ****   if ((pAdvOBInit->OptionType & OPTIONBYTE_BOOTCONFIG) == OPTIONBYTE_BOOTCONFIG)
 488:Drivers/STM32L0xx_HAL_Driver/Src/stm32l0xx_hal_flash_ex.c ****   {
ARM GAS  /tmp/cc70OH2t.s 			page 10


 489:Drivers/STM32L0xx_HAL_Driver/Src/stm32l0xx_hal_flash_ex.c ****     status = FLASH_OB_BootConfig(pAdvOBInit->BootConfig);
 490:Drivers/STM32L0xx_HAL_Driver/Src/stm32l0xx_hal_flash_ex.c ****   }
 491:Drivers/STM32L0xx_HAL_Driver/Src/stm32l0xx_hal_flash_ex.c ****   
 492:Drivers/STM32L0xx_HAL_Driver/Src/stm32l0xx_hal_flash_ex.c **** #endif /* FLASH_OPTR_BFB2 */
 493:Drivers/STM32L0xx_HAL_Driver/Src/stm32l0xx_hal_flash_ex.c **** 
 494:Drivers/STM32L0xx_HAL_Driver/Src/stm32l0xx_hal_flash_ex.c ****   return status;
 495:Drivers/STM32L0xx_HAL_Driver/Src/stm32l0xx_hal_flash_ex.c **** }
 496:Drivers/STM32L0xx_HAL_Driver/Src/stm32l0xx_hal_flash_ex.c **** 
 497:Drivers/STM32L0xx_HAL_Driver/Src/stm32l0xx_hal_flash_ex.c **** /**
 498:Drivers/STM32L0xx_HAL_Driver/Src/stm32l0xx_hal_flash_ex.c ****   * @brief  Get the OBEX byte configuration
 499:Drivers/STM32L0xx_HAL_Driver/Src/stm32l0xx_hal_flash_ex.c ****   * @param  pAdvOBInit pointer to an FLASH_AdvOBProgramInitTypeDef structure that
 500:Drivers/STM32L0xx_HAL_Driver/Src/stm32l0xx_hal_flash_ex.c ****   *         contains the configuration information for the programming.
 501:Drivers/STM32L0xx_HAL_Driver/Src/stm32l0xx_hal_flash_ex.c ****   * 
 502:Drivers/STM32L0xx_HAL_Driver/Src/stm32l0xx_hal_flash_ex.c ****   * @retval None
 503:Drivers/STM32L0xx_HAL_Driver/Src/stm32l0xx_hal_flash_ex.c ****   */
 504:Drivers/STM32L0xx_HAL_Driver/Src/stm32l0xx_hal_flash_ex.c **** void HAL_FLASHEx_AdvOBGetConfig(FLASH_AdvOBProgramInitTypeDef *pAdvOBInit)
 505:Drivers/STM32L0xx_HAL_Driver/Src/stm32l0xx_hal_flash_ex.c **** {
 506:Drivers/STM32L0xx_HAL_Driver/Src/stm32l0xx_hal_flash_ex.c ****   pAdvOBInit->OptionType = 0;
 507:Drivers/STM32L0xx_HAL_Driver/Src/stm32l0xx_hal_flash_ex.c ****   
 508:Drivers/STM32L0xx_HAL_Driver/Src/stm32l0xx_hal_flash_ex.c **** #if defined(FLASH_OPTR_WPRMOD)
 509:Drivers/STM32L0xx_HAL_Driver/Src/stm32l0xx_hal_flash_ex.c ****       
 510:Drivers/STM32L0xx_HAL_Driver/Src/stm32l0xx_hal_flash_ex.c ****   pAdvOBInit->OptionType |= OPTIONBYTE_PCROP;
 511:Drivers/STM32L0xx_HAL_Driver/Src/stm32l0xx_hal_flash_ex.c **** 
 512:Drivers/STM32L0xx_HAL_Driver/Src/stm32l0xx_hal_flash_ex.c **** 
 513:Drivers/STM32L0xx_HAL_Driver/Src/stm32l0xx_hal_flash_ex.c ****   /* Get PCROP state */
 514:Drivers/STM32L0xx_HAL_Driver/Src/stm32l0xx_hal_flash_ex.c ****   pAdvOBInit->PCROPState = (FLASH->OPTR & FLASH_OPTR_WPRMOD) >> FLASH_OPTR_WPRMOD_Pos;
 515:Drivers/STM32L0xx_HAL_Driver/Src/stm32l0xx_hal_flash_ex.c ****   /* Get PCROP protected sector */
 516:Drivers/STM32L0xx_HAL_Driver/Src/stm32l0xx_hal_flash_ex.c ****   pAdvOBInit->PCROPSector = FLASH->WRPR;
 517:Drivers/STM32L0xx_HAL_Driver/Src/stm32l0xx_hal_flash_ex.c **** 
 518:Drivers/STM32L0xx_HAL_Driver/Src/stm32l0xx_hal_flash_ex.c **** #if defined(STM32L071xx) || defined(STM32L072xx) || defined(STM32L073xx) || defined(STM32L081xx) ||
 519:Drivers/STM32L0xx_HAL_Driver/Src/stm32l0xx_hal_flash_ex.c ****   /* Get PCROP protected sector */
 520:Drivers/STM32L0xx_HAL_Driver/Src/stm32l0xx_hal_flash_ex.c ****   pAdvOBInit->PCROPSector2 = FLASH->WRPR2;
 521:Drivers/STM32L0xx_HAL_Driver/Src/stm32l0xx_hal_flash_ex.c **** #endif
 522:Drivers/STM32L0xx_HAL_Driver/Src/stm32l0xx_hal_flash_ex.c **** #endif /* FLASH_OPTR_WPRMOD */
 523:Drivers/STM32L0xx_HAL_Driver/Src/stm32l0xx_hal_flash_ex.c **** 
 524:Drivers/STM32L0xx_HAL_Driver/Src/stm32l0xx_hal_flash_ex.c **** #if defined(FLASH_OPTR_BFB2)
 525:Drivers/STM32L0xx_HAL_Driver/Src/stm32l0xx_hal_flash_ex.c ****       
 526:Drivers/STM32L0xx_HAL_Driver/Src/stm32l0xx_hal_flash_ex.c ****   pAdvOBInit->OptionType |= OPTIONBYTE_BOOTCONFIG;
 527:Drivers/STM32L0xx_HAL_Driver/Src/stm32l0xx_hal_flash_ex.c **** 
 528:Drivers/STM32L0xx_HAL_Driver/Src/stm32l0xx_hal_flash_ex.c ****   /* Get Boot config OB */
 529:Drivers/STM32L0xx_HAL_Driver/Src/stm32l0xx_hal_flash_ex.c ****   pAdvOBInit->BootConfig = (FLASH->OPTR & FLASH_OPTR_BFB2) >> 16U;
 530:Drivers/STM32L0xx_HAL_Driver/Src/stm32l0xx_hal_flash_ex.c **** 
 531:Drivers/STM32L0xx_HAL_Driver/Src/stm32l0xx_hal_flash_ex.c **** #endif /* FLASH_OPTR_BFB2 */
 532:Drivers/STM32L0xx_HAL_Driver/Src/stm32l0xx_hal_flash_ex.c **** }
 533:Drivers/STM32L0xx_HAL_Driver/Src/stm32l0xx_hal_flash_ex.c **** 
 534:Drivers/STM32L0xx_HAL_Driver/Src/stm32l0xx_hal_flash_ex.c **** #endif /* FLASH_OPTR_WPRMOD || FLASH_OPTR_BFB2 */
 535:Drivers/STM32L0xx_HAL_Driver/Src/stm32l0xx_hal_flash_ex.c **** 
 536:Drivers/STM32L0xx_HAL_Driver/Src/stm32l0xx_hal_flash_ex.c **** #if defined(FLASH_OPTR_WPRMOD)
 537:Drivers/STM32L0xx_HAL_Driver/Src/stm32l0xx_hal_flash_ex.c **** 
 538:Drivers/STM32L0xx_HAL_Driver/Src/stm32l0xx_hal_flash_ex.c **** /**
 539:Drivers/STM32L0xx_HAL_Driver/Src/stm32l0xx_hal_flash_ex.c ****   * @brief  Select the Protection Mode (WPRMOD).
 540:Drivers/STM32L0xx_HAL_Driver/Src/stm32l0xx_hal_flash_ex.c ****   * @note   Once WPRMOD bit is active, unprotection of a protected sector is not possible 
 541:Drivers/STM32L0xx_HAL_Driver/Src/stm32l0xx_hal_flash_ex.c ****   * @note   Read a protected sector will set RDERR Flag and write a protected sector will set WRPER
 542:Drivers/STM32L0xx_HAL_Driver/Src/stm32l0xx_hal_flash_ex.c ****   * @retval HAL status
 543:Drivers/STM32L0xx_HAL_Driver/Src/stm32l0xx_hal_flash_ex.c ****   */
 544:Drivers/STM32L0xx_HAL_Driver/Src/stm32l0xx_hal_flash_ex.c **** HAL_StatusTypeDef HAL_FLASHEx_OB_SelectPCROP(void)
 545:Drivers/STM32L0xx_HAL_Driver/Src/stm32l0xx_hal_flash_ex.c **** {
ARM GAS  /tmp/cc70OH2t.s 			page 11


 546:Drivers/STM32L0xx_HAL_Driver/Src/stm32l0xx_hal_flash_ex.c ****   HAL_StatusTypeDef status = HAL_OK;
 547:Drivers/STM32L0xx_HAL_Driver/Src/stm32l0xx_hal_flash_ex.c ****   uint16_t tmp1 = 0;
 548:Drivers/STM32L0xx_HAL_Driver/Src/stm32l0xx_hal_flash_ex.c ****   uint32_t tmp2 = 0;
 549:Drivers/STM32L0xx_HAL_Driver/Src/stm32l0xx_hal_flash_ex.c ****   uint8_t optiontmp = 0;
 550:Drivers/STM32L0xx_HAL_Driver/Src/stm32l0xx_hal_flash_ex.c ****   uint16_t optiontmp2 = 0;
 551:Drivers/STM32L0xx_HAL_Driver/Src/stm32l0xx_hal_flash_ex.c ****   
 552:Drivers/STM32L0xx_HAL_Driver/Src/stm32l0xx_hal_flash_ex.c ****   status = FLASH_WaitForLastOperation(FLASH_TIMEOUT_VALUE);
 553:Drivers/STM32L0xx_HAL_Driver/Src/stm32l0xx_hal_flash_ex.c ****   
 554:Drivers/STM32L0xx_HAL_Driver/Src/stm32l0xx_hal_flash_ex.c ****   /* Mask RDP Byte */
 555:Drivers/STM32L0xx_HAL_Driver/Src/stm32l0xx_hal_flash_ex.c ****   optiontmp =  (uint8_t)(*(__IO uint8_t *)(OB_BASE)); 
 556:Drivers/STM32L0xx_HAL_Driver/Src/stm32l0xx_hal_flash_ex.c ****   
 557:Drivers/STM32L0xx_HAL_Driver/Src/stm32l0xx_hal_flash_ex.c ****   /* Update Option Byte */
 558:Drivers/STM32L0xx_HAL_Driver/Src/stm32l0xx_hal_flash_ex.c ****   optiontmp2 = (uint16_t)(OB_PCROP_SELECTED | optiontmp); 
 559:Drivers/STM32L0xx_HAL_Driver/Src/stm32l0xx_hal_flash_ex.c ****   
 560:Drivers/STM32L0xx_HAL_Driver/Src/stm32l0xx_hal_flash_ex.c ****   /* calculate the option byte to write */
 561:Drivers/STM32L0xx_HAL_Driver/Src/stm32l0xx_hal_flash_ex.c ****   tmp1 = (uint16_t)(~(optiontmp2 ));
 562:Drivers/STM32L0xx_HAL_Driver/Src/stm32l0xx_hal_flash_ex.c ****   tmp2 = (uint32_t)(((uint32_t)((uint32_t)(tmp1) << 16U)) | ((uint32_t)optiontmp2));
 563:Drivers/STM32L0xx_HAL_Driver/Src/stm32l0xx_hal_flash_ex.c ****   
 564:Drivers/STM32L0xx_HAL_Driver/Src/stm32l0xx_hal_flash_ex.c ****   if(status == HAL_OK)
 565:Drivers/STM32L0xx_HAL_Driver/Src/stm32l0xx_hal_flash_ex.c ****   {         
 566:Drivers/STM32L0xx_HAL_Driver/Src/stm32l0xx_hal_flash_ex.c ****     /* Clean the error context */
 567:Drivers/STM32L0xx_HAL_Driver/Src/stm32l0xx_hal_flash_ex.c ****     pFlash.ErrorCode = HAL_FLASH_ERROR_NONE;
 568:Drivers/STM32L0xx_HAL_Driver/Src/stm32l0xx_hal_flash_ex.c **** 
 569:Drivers/STM32L0xx_HAL_Driver/Src/stm32l0xx_hal_flash_ex.c ****     /* program PCRop */
 570:Drivers/STM32L0xx_HAL_Driver/Src/stm32l0xx_hal_flash_ex.c ****     OB->RDP = tmp2;
 571:Drivers/STM32L0xx_HAL_Driver/Src/stm32l0xx_hal_flash_ex.c ****     
 572:Drivers/STM32L0xx_HAL_Driver/Src/stm32l0xx_hal_flash_ex.c ****     /* Wait for last operation to be completed */
 573:Drivers/STM32L0xx_HAL_Driver/Src/stm32l0xx_hal_flash_ex.c ****     status = FLASH_WaitForLastOperation(FLASH_TIMEOUT_VALUE);
 574:Drivers/STM32L0xx_HAL_Driver/Src/stm32l0xx_hal_flash_ex.c ****   }
 575:Drivers/STM32L0xx_HAL_Driver/Src/stm32l0xx_hal_flash_ex.c ****   
 576:Drivers/STM32L0xx_HAL_Driver/Src/stm32l0xx_hal_flash_ex.c ****   /* Return the Read protection operation Status */
 577:Drivers/STM32L0xx_HAL_Driver/Src/stm32l0xx_hal_flash_ex.c ****   return status;            
 578:Drivers/STM32L0xx_HAL_Driver/Src/stm32l0xx_hal_flash_ex.c **** }
 579:Drivers/STM32L0xx_HAL_Driver/Src/stm32l0xx_hal_flash_ex.c **** 
 580:Drivers/STM32L0xx_HAL_Driver/Src/stm32l0xx_hal_flash_ex.c **** /**
 581:Drivers/STM32L0xx_HAL_Driver/Src/stm32l0xx_hal_flash_ex.c ****   * @brief  Deselect the Protection Mode (WPRMOD).
 582:Drivers/STM32L0xx_HAL_Driver/Src/stm32l0xx_hal_flash_ex.c ****   * @note   Once WPRMOD bit is active, unprotection of a protected sector is not possible 
 583:Drivers/STM32L0xx_HAL_Driver/Src/stm32l0xx_hal_flash_ex.c ****   * @note   Read a protected sector will set RDERR Flag and write a protected sector will set WRPER
 584:Drivers/STM32L0xx_HAL_Driver/Src/stm32l0xx_hal_flash_ex.c ****   * @retval HAL status
 585:Drivers/STM32L0xx_HAL_Driver/Src/stm32l0xx_hal_flash_ex.c ****   */
 586:Drivers/STM32L0xx_HAL_Driver/Src/stm32l0xx_hal_flash_ex.c **** HAL_StatusTypeDef HAL_FLASHEx_OB_DeSelectPCROP(void)
 587:Drivers/STM32L0xx_HAL_Driver/Src/stm32l0xx_hal_flash_ex.c **** {
 588:Drivers/STM32L0xx_HAL_Driver/Src/stm32l0xx_hal_flash_ex.c ****   HAL_StatusTypeDef status = HAL_OK;
 589:Drivers/STM32L0xx_HAL_Driver/Src/stm32l0xx_hal_flash_ex.c ****   uint16_t tmp1 = 0;
 590:Drivers/STM32L0xx_HAL_Driver/Src/stm32l0xx_hal_flash_ex.c ****   uint32_t tmp2 = 0;
 591:Drivers/STM32L0xx_HAL_Driver/Src/stm32l0xx_hal_flash_ex.c ****   uint8_t optiontmp = 0;
 592:Drivers/STM32L0xx_HAL_Driver/Src/stm32l0xx_hal_flash_ex.c ****   uint16_t optiontmp2 = 0;
 593:Drivers/STM32L0xx_HAL_Driver/Src/stm32l0xx_hal_flash_ex.c ****   
 594:Drivers/STM32L0xx_HAL_Driver/Src/stm32l0xx_hal_flash_ex.c ****   status = FLASH_WaitForLastOperation(FLASH_TIMEOUT_VALUE);
 595:Drivers/STM32L0xx_HAL_Driver/Src/stm32l0xx_hal_flash_ex.c ****   
 596:Drivers/STM32L0xx_HAL_Driver/Src/stm32l0xx_hal_flash_ex.c ****   /* Mask RDP Byte */
 597:Drivers/STM32L0xx_HAL_Driver/Src/stm32l0xx_hal_flash_ex.c ****   optiontmp =  (uint8_t)(*(__IO uint8_t *)(OB_BASE)); 
 598:Drivers/STM32L0xx_HAL_Driver/Src/stm32l0xx_hal_flash_ex.c ****   
 599:Drivers/STM32L0xx_HAL_Driver/Src/stm32l0xx_hal_flash_ex.c ****   /* Update Option Byte */
 600:Drivers/STM32L0xx_HAL_Driver/Src/stm32l0xx_hal_flash_ex.c ****   optiontmp2 = (uint16_t)(OB_PCROP_DESELECTED | optiontmp); 
 601:Drivers/STM32L0xx_HAL_Driver/Src/stm32l0xx_hal_flash_ex.c ****   
 602:Drivers/STM32L0xx_HAL_Driver/Src/stm32l0xx_hal_flash_ex.c ****   /* calculate the option byte to write */
ARM GAS  /tmp/cc70OH2t.s 			page 12


 603:Drivers/STM32L0xx_HAL_Driver/Src/stm32l0xx_hal_flash_ex.c ****   tmp1 = (uint16_t)(~(optiontmp2 ));
 604:Drivers/STM32L0xx_HAL_Driver/Src/stm32l0xx_hal_flash_ex.c ****   tmp2 = (uint32_t)(((uint32_t)((uint32_t)(tmp1) << 16U)) | ((uint32_t)optiontmp2));
 605:Drivers/STM32L0xx_HAL_Driver/Src/stm32l0xx_hal_flash_ex.c ****   
 606:Drivers/STM32L0xx_HAL_Driver/Src/stm32l0xx_hal_flash_ex.c ****   if(status == HAL_OK)
 607:Drivers/STM32L0xx_HAL_Driver/Src/stm32l0xx_hal_flash_ex.c ****   {         
 608:Drivers/STM32L0xx_HAL_Driver/Src/stm32l0xx_hal_flash_ex.c ****     /* Clean the error context */
 609:Drivers/STM32L0xx_HAL_Driver/Src/stm32l0xx_hal_flash_ex.c ****     pFlash.ErrorCode = HAL_FLASH_ERROR_NONE;
 610:Drivers/STM32L0xx_HAL_Driver/Src/stm32l0xx_hal_flash_ex.c **** 
 611:Drivers/STM32L0xx_HAL_Driver/Src/stm32l0xx_hal_flash_ex.c ****     /* program PCRop */
 612:Drivers/STM32L0xx_HAL_Driver/Src/stm32l0xx_hal_flash_ex.c ****     OB->RDP = tmp2;
 613:Drivers/STM32L0xx_HAL_Driver/Src/stm32l0xx_hal_flash_ex.c ****     
 614:Drivers/STM32L0xx_HAL_Driver/Src/stm32l0xx_hal_flash_ex.c ****     /* Wait for last operation to be completed */
 615:Drivers/STM32L0xx_HAL_Driver/Src/stm32l0xx_hal_flash_ex.c ****     status = FLASH_WaitForLastOperation(FLASH_TIMEOUT_VALUE);
 616:Drivers/STM32L0xx_HAL_Driver/Src/stm32l0xx_hal_flash_ex.c ****   }
 617:Drivers/STM32L0xx_HAL_Driver/Src/stm32l0xx_hal_flash_ex.c ****   
 618:Drivers/STM32L0xx_HAL_Driver/Src/stm32l0xx_hal_flash_ex.c ****   /* Return the Read protection operation Status */
 619:Drivers/STM32L0xx_HAL_Driver/Src/stm32l0xx_hal_flash_ex.c ****   return status;            
 620:Drivers/STM32L0xx_HAL_Driver/Src/stm32l0xx_hal_flash_ex.c **** }
 621:Drivers/STM32L0xx_HAL_Driver/Src/stm32l0xx_hal_flash_ex.c **** 
 622:Drivers/STM32L0xx_HAL_Driver/Src/stm32l0xx_hal_flash_ex.c **** #endif /* FLASH_OPTR_WPRMOD */
 623:Drivers/STM32L0xx_HAL_Driver/Src/stm32l0xx_hal_flash_ex.c **** 
 624:Drivers/STM32L0xx_HAL_Driver/Src/stm32l0xx_hal_flash_ex.c **** /**
 625:Drivers/STM32L0xx_HAL_Driver/Src/stm32l0xx_hal_flash_ex.c ****   * @}
 626:Drivers/STM32L0xx_HAL_Driver/Src/stm32l0xx_hal_flash_ex.c ****   */
 627:Drivers/STM32L0xx_HAL_Driver/Src/stm32l0xx_hal_flash_ex.c **** 
 628:Drivers/STM32L0xx_HAL_Driver/Src/stm32l0xx_hal_flash_ex.c **** /** @defgroup FLASHEx_Exported_Functions_Group3 DATA EEPROM Programming functions
 629:Drivers/STM32L0xx_HAL_Driver/Src/stm32l0xx_hal_flash_ex.c ****  *  @brief   DATA EEPROM Programming functions
 630:Drivers/STM32L0xx_HAL_Driver/Src/stm32l0xx_hal_flash_ex.c ****  *
 631:Drivers/STM32L0xx_HAL_Driver/Src/stm32l0xx_hal_flash_ex.c **** @verbatim   
 632:Drivers/STM32L0xx_HAL_Driver/Src/stm32l0xx_hal_flash_ex.c ****  ===============================================================================
 633:Drivers/STM32L0xx_HAL_Driver/Src/stm32l0xx_hal_flash_ex.c ****                      ##### DATA EEPROM Programming functions ##### 
 634:Drivers/STM32L0xx_HAL_Driver/Src/stm32l0xx_hal_flash_ex.c ****  ===============================================================================  
 635:Drivers/STM32L0xx_HAL_Driver/Src/stm32l0xx_hal_flash_ex.c ****  
 636:Drivers/STM32L0xx_HAL_Driver/Src/stm32l0xx_hal_flash_ex.c ****     [..] Any operation of erase or program should follow these steps:
 637:Drivers/STM32L0xx_HAL_Driver/Src/stm32l0xx_hal_flash_ex.c ****     (#) Call the @ref HAL_FLASHEx_DATAEEPROM_Unlock() function to enable the data EEPROM access
 638:Drivers/STM32L0xx_HAL_Driver/Src/stm32l0xx_hal_flash_ex.c ****         and Flash program erase control register access.
 639:Drivers/STM32L0xx_HAL_Driver/Src/stm32l0xx_hal_flash_ex.c ****     (#) Call the desired function to erase or program data.
 640:Drivers/STM32L0xx_HAL_Driver/Src/stm32l0xx_hal_flash_ex.c ****     (#) Call the @ref HAL_FLASHEx_DATAEEPROM_Lock() to disable the data EEPROM access
 641:Drivers/STM32L0xx_HAL_Driver/Src/stm32l0xx_hal_flash_ex.c ****         and Flash program erase control register access(recommended
 642:Drivers/STM32L0xx_HAL_Driver/Src/stm32l0xx_hal_flash_ex.c ****         to protect the DATA_EEPROM against possible unwanted operation).
 643:Drivers/STM32L0xx_HAL_Driver/Src/stm32l0xx_hal_flash_ex.c **** 
 644:Drivers/STM32L0xx_HAL_Driver/Src/stm32l0xx_hal_flash_ex.c **** @endverbatim
 645:Drivers/STM32L0xx_HAL_Driver/Src/stm32l0xx_hal_flash_ex.c ****   * @{
 646:Drivers/STM32L0xx_HAL_Driver/Src/stm32l0xx_hal_flash_ex.c ****   */
 647:Drivers/STM32L0xx_HAL_Driver/Src/stm32l0xx_hal_flash_ex.c **** 
 648:Drivers/STM32L0xx_HAL_Driver/Src/stm32l0xx_hal_flash_ex.c **** /**
 649:Drivers/STM32L0xx_HAL_Driver/Src/stm32l0xx_hal_flash_ex.c ****   * @brief  Unlocks the data memory and FLASH_PECR register access.
 650:Drivers/STM32L0xx_HAL_Driver/Src/stm32l0xx_hal_flash_ex.c ****   * @retval HAL_StatusTypeDef HAL Status
 651:Drivers/STM32L0xx_HAL_Driver/Src/stm32l0xx_hal_flash_ex.c ****   */
 652:Drivers/STM32L0xx_HAL_Driver/Src/stm32l0xx_hal_flash_ex.c **** HAL_StatusTypeDef HAL_FLASHEx_DATAEEPROM_Unlock(void)
 653:Drivers/STM32L0xx_HAL_Driver/Src/stm32l0xx_hal_flash_ex.c **** {
 654:Drivers/STM32L0xx_HAL_Driver/Src/stm32l0xx_hal_flash_ex.c ****   if((FLASH->PECR & FLASH_PECR_PELOCK) != RESET)
 655:Drivers/STM32L0xx_HAL_Driver/Src/stm32l0xx_hal_flash_ex.c ****   {  
 656:Drivers/STM32L0xx_HAL_Driver/Src/stm32l0xx_hal_flash_ex.c ****     /* Unlocking the Data memory and FLASH_PECR register access*/
 657:Drivers/STM32L0xx_HAL_Driver/Src/stm32l0xx_hal_flash_ex.c ****     FLASH->PEKEYR = FLASH_PEKEY1;
 658:Drivers/STM32L0xx_HAL_Driver/Src/stm32l0xx_hal_flash_ex.c ****     FLASH->PEKEYR = FLASH_PEKEY2;
 659:Drivers/STM32L0xx_HAL_Driver/Src/stm32l0xx_hal_flash_ex.c ****   }
ARM GAS  /tmp/cc70OH2t.s 			page 13


 660:Drivers/STM32L0xx_HAL_Driver/Src/stm32l0xx_hal_flash_ex.c ****   else
 661:Drivers/STM32L0xx_HAL_Driver/Src/stm32l0xx_hal_flash_ex.c ****   {
 662:Drivers/STM32L0xx_HAL_Driver/Src/stm32l0xx_hal_flash_ex.c ****     return HAL_ERROR;
 663:Drivers/STM32L0xx_HAL_Driver/Src/stm32l0xx_hal_flash_ex.c ****   }
 664:Drivers/STM32L0xx_HAL_Driver/Src/stm32l0xx_hal_flash_ex.c ****   return HAL_OK;  
 665:Drivers/STM32L0xx_HAL_Driver/Src/stm32l0xx_hal_flash_ex.c **** }
 666:Drivers/STM32L0xx_HAL_Driver/Src/stm32l0xx_hal_flash_ex.c **** 
 667:Drivers/STM32L0xx_HAL_Driver/Src/stm32l0xx_hal_flash_ex.c **** /**
 668:Drivers/STM32L0xx_HAL_Driver/Src/stm32l0xx_hal_flash_ex.c ****   * @brief  Locks the Data memory and FLASH_PECR register access.
 669:Drivers/STM32L0xx_HAL_Driver/Src/stm32l0xx_hal_flash_ex.c ****   * @retval HAL_StatusTypeDef HAL Status
 670:Drivers/STM32L0xx_HAL_Driver/Src/stm32l0xx_hal_flash_ex.c ****   */
 671:Drivers/STM32L0xx_HAL_Driver/Src/stm32l0xx_hal_flash_ex.c **** HAL_StatusTypeDef HAL_FLASHEx_DATAEEPROM_Lock(void)
 672:Drivers/STM32L0xx_HAL_Driver/Src/stm32l0xx_hal_flash_ex.c **** {
 673:Drivers/STM32L0xx_HAL_Driver/Src/stm32l0xx_hal_flash_ex.c ****   /* Set the PELOCK Bit to lock the data memory and FLASH_PECR register access */
 674:Drivers/STM32L0xx_HAL_Driver/Src/stm32l0xx_hal_flash_ex.c ****   SET_BIT(FLASH->PECR, FLASH_PECR_PELOCK);
 675:Drivers/STM32L0xx_HAL_Driver/Src/stm32l0xx_hal_flash_ex.c ****   
 676:Drivers/STM32L0xx_HAL_Driver/Src/stm32l0xx_hal_flash_ex.c ****   return HAL_OK;
 677:Drivers/STM32L0xx_HAL_Driver/Src/stm32l0xx_hal_flash_ex.c **** }
 678:Drivers/STM32L0xx_HAL_Driver/Src/stm32l0xx_hal_flash_ex.c **** 
 679:Drivers/STM32L0xx_HAL_Driver/Src/stm32l0xx_hal_flash_ex.c **** /**
 680:Drivers/STM32L0xx_HAL_Driver/Src/stm32l0xx_hal_flash_ex.c ****   * @brief  Erase a word in data memory.
 681:Drivers/STM32L0xx_HAL_Driver/Src/stm32l0xx_hal_flash_ex.c ****   * @param  Address specifies the address to be erased.
 682:Drivers/STM32L0xx_HAL_Driver/Src/stm32l0xx_hal_flash_ex.c ****   * @note   To correctly run this function, the @ref HAL_FLASHEx_DATAEEPROM_Unlock() function
 683:Drivers/STM32L0xx_HAL_Driver/Src/stm32l0xx_hal_flash_ex.c ****   *         must be called before.
 684:Drivers/STM32L0xx_HAL_Driver/Src/stm32l0xx_hal_flash_ex.c ****   *         Call the @ref HAL_FLASHEx_DATAEEPROM_Lock() to the data EEPROM access
 685:Drivers/STM32L0xx_HAL_Driver/Src/stm32l0xx_hal_flash_ex.c ****   *         and Flash program erase control register access(recommended to protect 
 686:Drivers/STM32L0xx_HAL_Driver/Src/stm32l0xx_hal_flash_ex.c ****   *         the DATA_EEPROM against possible unwanted operation).
 687:Drivers/STM32L0xx_HAL_Driver/Src/stm32l0xx_hal_flash_ex.c ****   * @retval HAL_StatusTypeDef HAL Status
 688:Drivers/STM32L0xx_HAL_Driver/Src/stm32l0xx_hal_flash_ex.c ****   */
 689:Drivers/STM32L0xx_HAL_Driver/Src/stm32l0xx_hal_flash_ex.c **** HAL_StatusTypeDef HAL_FLASHEx_DATAEEPROM_Erase(uint32_t Address)
 690:Drivers/STM32L0xx_HAL_Driver/Src/stm32l0xx_hal_flash_ex.c **** {
 691:Drivers/STM32L0xx_HAL_Driver/Src/stm32l0xx_hal_flash_ex.c ****   HAL_StatusTypeDef status = HAL_OK;
 692:Drivers/STM32L0xx_HAL_Driver/Src/stm32l0xx_hal_flash_ex.c ****   
 693:Drivers/STM32L0xx_HAL_Driver/Src/stm32l0xx_hal_flash_ex.c ****   /* Check the parameters */
 694:Drivers/STM32L0xx_HAL_Driver/Src/stm32l0xx_hal_flash_ex.c ****   assert_param(IS_FLASH_DATA_ADDRESS(Address));
 695:Drivers/STM32L0xx_HAL_Driver/Src/stm32l0xx_hal_flash_ex.c ****   
 696:Drivers/STM32L0xx_HAL_Driver/Src/stm32l0xx_hal_flash_ex.c ****   /* Wait for last operation to be completed */
 697:Drivers/STM32L0xx_HAL_Driver/Src/stm32l0xx_hal_flash_ex.c ****   status = FLASH_WaitForLastOperation(FLASH_TIMEOUT_VALUE);
 698:Drivers/STM32L0xx_HAL_Driver/Src/stm32l0xx_hal_flash_ex.c ****   
 699:Drivers/STM32L0xx_HAL_Driver/Src/stm32l0xx_hal_flash_ex.c ****   if(status == HAL_OK)
 700:Drivers/STM32L0xx_HAL_Driver/Src/stm32l0xx_hal_flash_ex.c ****   {
 701:Drivers/STM32L0xx_HAL_Driver/Src/stm32l0xx_hal_flash_ex.c ****     /* Clean the error context */
 702:Drivers/STM32L0xx_HAL_Driver/Src/stm32l0xx_hal_flash_ex.c ****     pFlash.ErrorCode = HAL_FLASH_ERROR_NONE;
 703:Drivers/STM32L0xx_HAL_Driver/Src/stm32l0xx_hal_flash_ex.c **** 
 704:Drivers/STM32L0xx_HAL_Driver/Src/stm32l0xx_hal_flash_ex.c ****       /* Write 00000000h to valid address in the data memory */
 705:Drivers/STM32L0xx_HAL_Driver/Src/stm32l0xx_hal_flash_ex.c ****       *(__IO uint32_t *) Address = 0x00000000U;
 706:Drivers/STM32L0xx_HAL_Driver/Src/stm32l0xx_hal_flash_ex.c **** 
 707:Drivers/STM32L0xx_HAL_Driver/Src/stm32l0xx_hal_flash_ex.c ****     status = FLASH_WaitForLastOperation(FLASH_TIMEOUT_VALUE);
 708:Drivers/STM32L0xx_HAL_Driver/Src/stm32l0xx_hal_flash_ex.c ****   }
 709:Drivers/STM32L0xx_HAL_Driver/Src/stm32l0xx_hal_flash_ex.c ****    
 710:Drivers/STM32L0xx_HAL_Driver/Src/stm32l0xx_hal_flash_ex.c ****   /* Return the erase status */
 711:Drivers/STM32L0xx_HAL_Driver/Src/stm32l0xx_hal_flash_ex.c ****   return status;
 712:Drivers/STM32L0xx_HAL_Driver/Src/stm32l0xx_hal_flash_ex.c **** }  
 713:Drivers/STM32L0xx_HAL_Driver/Src/stm32l0xx_hal_flash_ex.c **** 
 714:Drivers/STM32L0xx_HAL_Driver/Src/stm32l0xx_hal_flash_ex.c **** /**
 715:Drivers/STM32L0xx_HAL_Driver/Src/stm32l0xx_hal_flash_ex.c ****   * @brief  Program word at a specified address
 716:Drivers/STM32L0xx_HAL_Driver/Src/stm32l0xx_hal_flash_ex.c ****   * @note   To correctly run this function, the @ref HAL_FLASHEx_DATAEEPROM_Unlock() function
ARM GAS  /tmp/cc70OH2t.s 			page 14


 717:Drivers/STM32L0xx_HAL_Driver/Src/stm32l0xx_hal_flash_ex.c ****   *         must be called before.
 718:Drivers/STM32L0xx_HAL_Driver/Src/stm32l0xx_hal_flash_ex.c ****   *         Call the @ref HAL_FLASHEx_DATAEEPROM_Unlock() to he data EEPROM access
 719:Drivers/STM32L0xx_HAL_Driver/Src/stm32l0xx_hal_flash_ex.c ****   *         and Flash program erase control register access(recommended to protect 
 720:Drivers/STM32L0xx_HAL_Driver/Src/stm32l0xx_hal_flash_ex.c ****   *         the DATA_EEPROM against possible unwanted operation).
 721:Drivers/STM32L0xx_HAL_Driver/Src/stm32l0xx_hal_flash_ex.c ****   * @note   The function @ref HAL_FLASHEx_DATAEEPROM_EnableFixedTimeProgram() can be called before 
 722:Drivers/STM32L0xx_HAL_Driver/Src/stm32l0xx_hal_flash_ex.c ****   *         this function to configure the Fixed Time Programming.
 723:Drivers/STM32L0xx_HAL_Driver/Src/stm32l0xx_hal_flash_ex.c ****   * @param  TypeProgram  Indicate the way to program at a specified address.
 724:Drivers/STM32L0xx_HAL_Driver/Src/stm32l0xx_hal_flash_ex.c ****   *         This parameter can be a value of @ref FLASHEx_Type_Program_Data
 725:Drivers/STM32L0xx_HAL_Driver/Src/stm32l0xx_hal_flash_ex.c ****   * @param  Address  specifie the address to be programmed.
 726:Drivers/STM32L0xx_HAL_Driver/Src/stm32l0xx_hal_flash_ex.c ****   * @param  Data     specifie the data to be programmed
 727:Drivers/STM32L0xx_HAL_Driver/Src/stm32l0xx_hal_flash_ex.c ****   * 
 728:Drivers/STM32L0xx_HAL_Driver/Src/stm32l0xx_hal_flash_ex.c ****   * @retval HAL_StatusTypeDef HAL Status
 729:Drivers/STM32L0xx_HAL_Driver/Src/stm32l0xx_hal_flash_ex.c ****   */
 730:Drivers/STM32L0xx_HAL_Driver/Src/stm32l0xx_hal_flash_ex.c **** 
 731:Drivers/STM32L0xx_HAL_Driver/Src/stm32l0xx_hal_flash_ex.c **** HAL_StatusTypeDef   HAL_FLASHEx_DATAEEPROM_Program(uint32_t TypeProgram, uint32_t Address, uint32_t
 732:Drivers/STM32L0xx_HAL_Driver/Src/stm32l0xx_hal_flash_ex.c **** {
 733:Drivers/STM32L0xx_HAL_Driver/Src/stm32l0xx_hal_flash_ex.c ****   HAL_StatusTypeDef status = HAL_ERROR;
 734:Drivers/STM32L0xx_HAL_Driver/Src/stm32l0xx_hal_flash_ex.c ****   
 735:Drivers/STM32L0xx_HAL_Driver/Src/stm32l0xx_hal_flash_ex.c ****   /* Process Locked */
 736:Drivers/STM32L0xx_HAL_Driver/Src/stm32l0xx_hal_flash_ex.c ****   __HAL_LOCK(&pFlash);
 737:Drivers/STM32L0xx_HAL_Driver/Src/stm32l0xx_hal_flash_ex.c **** 
 738:Drivers/STM32L0xx_HAL_Driver/Src/stm32l0xx_hal_flash_ex.c ****   /* Check the parameters */
 739:Drivers/STM32L0xx_HAL_Driver/Src/stm32l0xx_hal_flash_ex.c ****   assert_param(IS_TYPEPROGRAMDATA(TypeProgram));
 740:Drivers/STM32L0xx_HAL_Driver/Src/stm32l0xx_hal_flash_ex.c ****   assert_param(IS_FLASH_DATA_ADDRESS(Address));
 741:Drivers/STM32L0xx_HAL_Driver/Src/stm32l0xx_hal_flash_ex.c **** 
 742:Drivers/STM32L0xx_HAL_Driver/Src/stm32l0xx_hal_flash_ex.c ****   /* Wait for last operation to be completed */
 743:Drivers/STM32L0xx_HAL_Driver/Src/stm32l0xx_hal_flash_ex.c ****   status = FLASH_WaitForLastOperation(FLASH_TIMEOUT_VALUE);
 744:Drivers/STM32L0xx_HAL_Driver/Src/stm32l0xx_hal_flash_ex.c ****   
 745:Drivers/STM32L0xx_HAL_Driver/Src/stm32l0xx_hal_flash_ex.c ****   if(status == HAL_OK)
 746:Drivers/STM32L0xx_HAL_Driver/Src/stm32l0xx_hal_flash_ex.c ****   {
 747:Drivers/STM32L0xx_HAL_Driver/Src/stm32l0xx_hal_flash_ex.c ****     /* Clean the error context */
 748:Drivers/STM32L0xx_HAL_Driver/Src/stm32l0xx_hal_flash_ex.c ****     pFlash.ErrorCode = HAL_FLASH_ERROR_NONE;
 749:Drivers/STM32L0xx_HAL_Driver/Src/stm32l0xx_hal_flash_ex.c **** 
 750:Drivers/STM32L0xx_HAL_Driver/Src/stm32l0xx_hal_flash_ex.c ****     if(TypeProgram == FLASH_TYPEPROGRAMDATA_WORD)
 751:Drivers/STM32L0xx_HAL_Driver/Src/stm32l0xx_hal_flash_ex.c ****     {
 752:Drivers/STM32L0xx_HAL_Driver/Src/stm32l0xx_hal_flash_ex.c ****       /* Program word (32-bit) at a specified address.*/
 753:Drivers/STM32L0xx_HAL_Driver/Src/stm32l0xx_hal_flash_ex.c ****       *(__IO uint32_t *)Address = Data;
 754:Drivers/STM32L0xx_HAL_Driver/Src/stm32l0xx_hal_flash_ex.c ****     }
 755:Drivers/STM32L0xx_HAL_Driver/Src/stm32l0xx_hal_flash_ex.c ****     else if(TypeProgram == FLASH_TYPEPROGRAMDATA_HALFWORD)
 756:Drivers/STM32L0xx_HAL_Driver/Src/stm32l0xx_hal_flash_ex.c ****     {
 757:Drivers/STM32L0xx_HAL_Driver/Src/stm32l0xx_hal_flash_ex.c ****       /* Program halfword (16-bit) at a specified address.*/
 758:Drivers/STM32L0xx_HAL_Driver/Src/stm32l0xx_hal_flash_ex.c ****       *(__IO uint16_t *)Address = (uint16_t) Data;
 759:Drivers/STM32L0xx_HAL_Driver/Src/stm32l0xx_hal_flash_ex.c ****     }
 760:Drivers/STM32L0xx_HAL_Driver/Src/stm32l0xx_hal_flash_ex.c ****     else if(TypeProgram == FLASH_TYPEPROGRAMDATA_BYTE)
 761:Drivers/STM32L0xx_HAL_Driver/Src/stm32l0xx_hal_flash_ex.c ****     {
 762:Drivers/STM32L0xx_HAL_Driver/Src/stm32l0xx_hal_flash_ex.c ****       /* Program byte (8-bit) at a specified address.*/
 763:Drivers/STM32L0xx_HAL_Driver/Src/stm32l0xx_hal_flash_ex.c ****       *(__IO uint8_t *)Address = (uint8_t) Data;
 764:Drivers/STM32L0xx_HAL_Driver/Src/stm32l0xx_hal_flash_ex.c ****     }
 765:Drivers/STM32L0xx_HAL_Driver/Src/stm32l0xx_hal_flash_ex.c ****     else
 766:Drivers/STM32L0xx_HAL_Driver/Src/stm32l0xx_hal_flash_ex.c ****     {
 767:Drivers/STM32L0xx_HAL_Driver/Src/stm32l0xx_hal_flash_ex.c ****       status = HAL_ERROR;
 768:Drivers/STM32L0xx_HAL_Driver/Src/stm32l0xx_hal_flash_ex.c ****     }
 769:Drivers/STM32L0xx_HAL_Driver/Src/stm32l0xx_hal_flash_ex.c **** 
 770:Drivers/STM32L0xx_HAL_Driver/Src/stm32l0xx_hal_flash_ex.c ****     if (status != HAL_OK)
 771:Drivers/STM32L0xx_HAL_Driver/Src/stm32l0xx_hal_flash_ex.c ****     {
 772:Drivers/STM32L0xx_HAL_Driver/Src/stm32l0xx_hal_flash_ex.c ****       /* Wait for last operation to be completed */
 773:Drivers/STM32L0xx_HAL_Driver/Src/stm32l0xx_hal_flash_ex.c ****       status = FLASH_WaitForLastOperation(FLASH_TIMEOUT_VALUE);
ARM GAS  /tmp/cc70OH2t.s 			page 15


 774:Drivers/STM32L0xx_HAL_Driver/Src/stm32l0xx_hal_flash_ex.c ****     }
 775:Drivers/STM32L0xx_HAL_Driver/Src/stm32l0xx_hal_flash_ex.c ****   }
 776:Drivers/STM32L0xx_HAL_Driver/Src/stm32l0xx_hal_flash_ex.c **** 
 777:Drivers/STM32L0xx_HAL_Driver/Src/stm32l0xx_hal_flash_ex.c ****   /* Process Unlocked */
 778:Drivers/STM32L0xx_HAL_Driver/Src/stm32l0xx_hal_flash_ex.c ****   __HAL_UNLOCK(&pFlash);
 779:Drivers/STM32L0xx_HAL_Driver/Src/stm32l0xx_hal_flash_ex.c **** 
 780:Drivers/STM32L0xx_HAL_Driver/Src/stm32l0xx_hal_flash_ex.c ****   return status;
 781:Drivers/STM32L0xx_HAL_Driver/Src/stm32l0xx_hal_flash_ex.c **** }
 782:Drivers/STM32L0xx_HAL_Driver/Src/stm32l0xx_hal_flash_ex.c **** 
 783:Drivers/STM32L0xx_HAL_Driver/Src/stm32l0xx_hal_flash_ex.c **** /**
 784:Drivers/STM32L0xx_HAL_Driver/Src/stm32l0xx_hal_flash_ex.c ****   * @brief  Enable DATA EEPROM fixed Time programming (2*Tprog).
 785:Drivers/STM32L0xx_HAL_Driver/Src/stm32l0xx_hal_flash_ex.c ****   * @retval None
 786:Drivers/STM32L0xx_HAL_Driver/Src/stm32l0xx_hal_flash_ex.c ****   */
 787:Drivers/STM32L0xx_HAL_Driver/Src/stm32l0xx_hal_flash_ex.c **** void HAL_FLASHEx_DATAEEPROM_EnableFixedTimeProgram(void)
 788:Drivers/STM32L0xx_HAL_Driver/Src/stm32l0xx_hal_flash_ex.c **** {
 789:Drivers/STM32L0xx_HAL_Driver/Src/stm32l0xx_hal_flash_ex.c ****   SET_BIT(FLASH->PECR, FLASH_PECR_FIX);
 790:Drivers/STM32L0xx_HAL_Driver/Src/stm32l0xx_hal_flash_ex.c **** }
 791:Drivers/STM32L0xx_HAL_Driver/Src/stm32l0xx_hal_flash_ex.c **** 
 792:Drivers/STM32L0xx_HAL_Driver/Src/stm32l0xx_hal_flash_ex.c **** /**
 793:Drivers/STM32L0xx_HAL_Driver/Src/stm32l0xx_hal_flash_ex.c ****   * @brief  Disables DATA EEPROM fixed Time programming (2*Tprog).
 794:Drivers/STM32L0xx_HAL_Driver/Src/stm32l0xx_hal_flash_ex.c ****   * @retval None
 795:Drivers/STM32L0xx_HAL_Driver/Src/stm32l0xx_hal_flash_ex.c ****   */
 796:Drivers/STM32L0xx_HAL_Driver/Src/stm32l0xx_hal_flash_ex.c **** void HAL_FLASHEx_DATAEEPROM_DisableFixedTimeProgram(void)
 797:Drivers/STM32L0xx_HAL_Driver/Src/stm32l0xx_hal_flash_ex.c **** {
 798:Drivers/STM32L0xx_HAL_Driver/Src/stm32l0xx_hal_flash_ex.c ****   CLEAR_BIT(FLASH->PECR, FLASH_PECR_FIX);
 799:Drivers/STM32L0xx_HAL_Driver/Src/stm32l0xx_hal_flash_ex.c **** }
 800:Drivers/STM32L0xx_HAL_Driver/Src/stm32l0xx_hal_flash_ex.c **** 
 801:Drivers/STM32L0xx_HAL_Driver/Src/stm32l0xx_hal_flash_ex.c **** /**
 802:Drivers/STM32L0xx_HAL_Driver/Src/stm32l0xx_hal_flash_ex.c ****   * @}
 803:Drivers/STM32L0xx_HAL_Driver/Src/stm32l0xx_hal_flash_ex.c ****   */
 804:Drivers/STM32L0xx_HAL_Driver/Src/stm32l0xx_hal_flash_ex.c **** 
 805:Drivers/STM32L0xx_HAL_Driver/Src/stm32l0xx_hal_flash_ex.c **** /**
 806:Drivers/STM32L0xx_HAL_Driver/Src/stm32l0xx_hal_flash_ex.c ****   * @}
 807:Drivers/STM32L0xx_HAL_Driver/Src/stm32l0xx_hal_flash_ex.c ****   */
 808:Drivers/STM32L0xx_HAL_Driver/Src/stm32l0xx_hal_flash_ex.c **** 
 809:Drivers/STM32L0xx_HAL_Driver/Src/stm32l0xx_hal_flash_ex.c **** /** @addtogroup FLASHEx_Private_Functions
 810:Drivers/STM32L0xx_HAL_Driver/Src/stm32l0xx_hal_flash_ex.c ****  * @{
 811:Drivers/STM32L0xx_HAL_Driver/Src/stm32l0xx_hal_flash_ex.c ****  */
 812:Drivers/STM32L0xx_HAL_Driver/Src/stm32l0xx_hal_flash_ex.c **** 
 813:Drivers/STM32L0xx_HAL_Driver/Src/stm32l0xx_hal_flash_ex.c **** /*
 814:Drivers/STM32L0xx_HAL_Driver/Src/stm32l0xx_hal_flash_ex.c **** ==============================================================================
 815:Drivers/STM32L0xx_HAL_Driver/Src/stm32l0xx_hal_flash_ex.c ****               OPTIONS BYTES
 816:Drivers/STM32L0xx_HAL_Driver/Src/stm32l0xx_hal_flash_ex.c **** ==============================================================================
 817:Drivers/STM32L0xx_HAL_Driver/Src/stm32l0xx_hal_flash_ex.c **** */
 818:Drivers/STM32L0xx_HAL_Driver/Src/stm32l0xx_hal_flash_ex.c **** /**
 819:Drivers/STM32L0xx_HAL_Driver/Src/stm32l0xx_hal_flash_ex.c ****   * @brief  Enables or disables the read out protection.
 820:Drivers/STM32L0xx_HAL_Driver/Src/stm32l0xx_hal_flash_ex.c ****   * @note   To correctly run this function, the @ref HAL_FLASH_OB_Unlock() function
 821:Drivers/STM32L0xx_HAL_Driver/Src/stm32l0xx_hal_flash_ex.c ****   *         must be called before.
 822:Drivers/STM32L0xx_HAL_Driver/Src/stm32l0xx_hal_flash_ex.c ****   * @param  OB_RDP specifies the read protection level. 
 823:Drivers/STM32L0xx_HAL_Driver/Src/stm32l0xx_hal_flash_ex.c ****   *   This parameter can be:
 824:Drivers/STM32L0xx_HAL_Driver/Src/stm32l0xx_hal_flash_ex.c ****   *     @arg @ref OB_RDP_LEVEL_0 No protection
 825:Drivers/STM32L0xx_HAL_Driver/Src/stm32l0xx_hal_flash_ex.c ****   *     @arg @ref OB_RDP_LEVEL_1 Read protection of the memory
 826:Drivers/STM32L0xx_HAL_Driver/Src/stm32l0xx_hal_flash_ex.c ****   *     @arg @ref OB_RDP_LEVEL_2 Chip protection
 827:Drivers/STM32L0xx_HAL_Driver/Src/stm32l0xx_hal_flash_ex.c ****   * 
 828:Drivers/STM32L0xx_HAL_Driver/Src/stm32l0xx_hal_flash_ex.c ****   *  !!!Warning!!! When enabling OB_RDP_LEVEL_2 it's no more possible to go back to level 1 or 0
 829:Drivers/STM32L0xx_HAL_Driver/Src/stm32l0xx_hal_flash_ex.c ****   *   
 830:Drivers/STM32L0xx_HAL_Driver/Src/stm32l0xx_hal_flash_ex.c ****   * @retval HAL status
ARM GAS  /tmp/cc70OH2t.s 			page 16


 831:Drivers/STM32L0xx_HAL_Driver/Src/stm32l0xx_hal_flash_ex.c ****   */
 832:Drivers/STM32L0xx_HAL_Driver/Src/stm32l0xx_hal_flash_ex.c **** static HAL_StatusTypeDef FLASH_OB_RDPConfig(uint8_t OB_RDP)
 833:Drivers/STM32L0xx_HAL_Driver/Src/stm32l0xx_hal_flash_ex.c **** {
 834:Drivers/STM32L0xx_HAL_Driver/Src/stm32l0xx_hal_flash_ex.c ****   HAL_StatusTypeDef status = HAL_OK;
 835:Drivers/STM32L0xx_HAL_Driver/Src/stm32l0xx_hal_flash_ex.c ****   uint32_t tmp1 = 0U, tmp2 = 0U, tmp3 = 0U;
 836:Drivers/STM32L0xx_HAL_Driver/Src/stm32l0xx_hal_flash_ex.c ****   
 837:Drivers/STM32L0xx_HAL_Driver/Src/stm32l0xx_hal_flash_ex.c ****   /* Check the parameters */
 838:Drivers/STM32L0xx_HAL_Driver/Src/stm32l0xx_hal_flash_ex.c ****   assert_param(IS_OB_RDP(OB_RDP));
 839:Drivers/STM32L0xx_HAL_Driver/Src/stm32l0xx_hal_flash_ex.c ****   
 840:Drivers/STM32L0xx_HAL_Driver/Src/stm32l0xx_hal_flash_ex.c ****   tmp1 = (uint32_t)(OB->RDP & FLASH_OPTR_RDPROT);
 841:Drivers/STM32L0xx_HAL_Driver/Src/stm32l0xx_hal_flash_ex.c ****   
 842:Drivers/STM32L0xx_HAL_Driver/Src/stm32l0xx_hal_flash_ex.c **** #if defined(FLASH_OPTR_WPRMOD)
 843:Drivers/STM32L0xx_HAL_Driver/Src/stm32l0xx_hal_flash_ex.c ****     /* Mask WPRMOD bit */
 844:Drivers/STM32L0xx_HAL_Driver/Src/stm32l0xx_hal_flash_ex.c ****     tmp3 = (uint32_t)(OB->RDP & FLASH_OPTR_WPRMOD);
 845:Drivers/STM32L0xx_HAL_Driver/Src/stm32l0xx_hal_flash_ex.c **** #endif
 846:Drivers/STM32L0xx_HAL_Driver/Src/stm32l0xx_hal_flash_ex.c **** 
 847:Drivers/STM32L0xx_HAL_Driver/Src/stm32l0xx_hal_flash_ex.c ****     /* calculate the option byte to write */
 848:Drivers/STM32L0xx_HAL_Driver/Src/stm32l0xx_hal_flash_ex.c ****     tmp1 = (~((uint32_t)(OB_RDP | tmp3)));
 849:Drivers/STM32L0xx_HAL_Driver/Src/stm32l0xx_hal_flash_ex.c ****     tmp2 = (uint32_t)(((uint32_t)((uint32_t)(tmp1) << 16U)) | ((uint32_t)(OB_RDP | tmp3)));
 850:Drivers/STM32L0xx_HAL_Driver/Src/stm32l0xx_hal_flash_ex.c **** 
 851:Drivers/STM32L0xx_HAL_Driver/Src/stm32l0xx_hal_flash_ex.c ****     /* Wait for last operation to be completed */
 852:Drivers/STM32L0xx_HAL_Driver/Src/stm32l0xx_hal_flash_ex.c ****     status = FLASH_WaitForLastOperation(FLASH_TIMEOUT_VALUE);
 853:Drivers/STM32L0xx_HAL_Driver/Src/stm32l0xx_hal_flash_ex.c **** 
 854:Drivers/STM32L0xx_HAL_Driver/Src/stm32l0xx_hal_flash_ex.c ****     if(status == HAL_OK)
 855:Drivers/STM32L0xx_HAL_Driver/Src/stm32l0xx_hal_flash_ex.c ****     {
 856:Drivers/STM32L0xx_HAL_Driver/Src/stm32l0xx_hal_flash_ex.c ****       /* Clean the error context */
 857:Drivers/STM32L0xx_HAL_Driver/Src/stm32l0xx_hal_flash_ex.c ****       pFlash.ErrorCode = HAL_FLASH_ERROR_NONE;
 858:Drivers/STM32L0xx_HAL_Driver/Src/stm32l0xx_hal_flash_ex.c **** 
 859:Drivers/STM32L0xx_HAL_Driver/Src/stm32l0xx_hal_flash_ex.c ****       /* program read protection level */
 860:Drivers/STM32L0xx_HAL_Driver/Src/stm32l0xx_hal_flash_ex.c ****       OB->RDP = tmp2;
 861:Drivers/STM32L0xx_HAL_Driver/Src/stm32l0xx_hal_flash_ex.c **** 
 862:Drivers/STM32L0xx_HAL_Driver/Src/stm32l0xx_hal_flash_ex.c ****       /* Wait for last operation to be completed */
 863:Drivers/STM32L0xx_HAL_Driver/Src/stm32l0xx_hal_flash_ex.c ****       status = FLASH_WaitForLastOperation(FLASH_TIMEOUT_VALUE);
 864:Drivers/STM32L0xx_HAL_Driver/Src/stm32l0xx_hal_flash_ex.c ****     }
 865:Drivers/STM32L0xx_HAL_Driver/Src/stm32l0xx_hal_flash_ex.c **** 
 866:Drivers/STM32L0xx_HAL_Driver/Src/stm32l0xx_hal_flash_ex.c ****   /* Return the Read protection operation Status */
 867:Drivers/STM32L0xx_HAL_Driver/Src/stm32l0xx_hal_flash_ex.c ****   return status;
 868:Drivers/STM32L0xx_HAL_Driver/Src/stm32l0xx_hal_flash_ex.c **** }
 869:Drivers/STM32L0xx_HAL_Driver/Src/stm32l0xx_hal_flash_ex.c **** 
 870:Drivers/STM32L0xx_HAL_Driver/Src/stm32l0xx_hal_flash_ex.c **** /**
 871:Drivers/STM32L0xx_HAL_Driver/Src/stm32l0xx_hal_flash_ex.c ****   * @brief  Programs the FLASH brownout reset threshold level Option Byte.
 872:Drivers/STM32L0xx_HAL_Driver/Src/stm32l0xx_hal_flash_ex.c ****   * @param  OB_BOR Selects the brownout reset threshold level.
 873:Drivers/STM32L0xx_HAL_Driver/Src/stm32l0xx_hal_flash_ex.c ****   *   This parameter can be one of the following values:
 874:Drivers/STM32L0xx_HAL_Driver/Src/stm32l0xx_hal_flash_ex.c ****   *     @arg @ref OB_BOR_OFF BOR is disabled at power down, the reset is asserted when the VDD 
 875:Drivers/STM32L0xx_HAL_Driver/Src/stm32l0xx_hal_flash_ex.c ****   *                      power supply reaches the PDR(Power Down Reset) threshold (1.5V)
 876:Drivers/STM32L0xx_HAL_Driver/Src/stm32l0xx_hal_flash_ex.c ****   *     @arg @ref OB_BOR_LEVEL1 BOR Reset threshold levels for 1.7V - 1.8V VDD power supply
 877:Drivers/STM32L0xx_HAL_Driver/Src/stm32l0xx_hal_flash_ex.c ****   *     @arg @ref OB_BOR_LEVEL2 BOR Reset threshold levels for 1.9V - 2.0V VDD power supply
 878:Drivers/STM32L0xx_HAL_Driver/Src/stm32l0xx_hal_flash_ex.c ****   *     @arg @ref OB_BOR_LEVEL3 BOR Reset threshold levels for 2.3V - 2.4V VDD power supply
 879:Drivers/STM32L0xx_HAL_Driver/Src/stm32l0xx_hal_flash_ex.c ****   *     @arg @ref OB_BOR_LEVEL4 BOR Reset threshold levels for 2.55V - 2.65V VDD power supply
 880:Drivers/STM32L0xx_HAL_Driver/Src/stm32l0xx_hal_flash_ex.c ****   *     @arg @ref OB_BOR_LEVEL5 BOR Reset threshold levels for 2.8V - 2.9V VDD power supply
 881:Drivers/STM32L0xx_HAL_Driver/Src/stm32l0xx_hal_flash_ex.c ****   * @retval HAL status
 882:Drivers/STM32L0xx_HAL_Driver/Src/stm32l0xx_hal_flash_ex.c ****   */
 883:Drivers/STM32L0xx_HAL_Driver/Src/stm32l0xx_hal_flash_ex.c **** static HAL_StatusTypeDef FLASH_OB_BORConfig(uint8_t OB_BOR)
 884:Drivers/STM32L0xx_HAL_Driver/Src/stm32l0xx_hal_flash_ex.c **** {
 885:Drivers/STM32L0xx_HAL_Driver/Src/stm32l0xx_hal_flash_ex.c ****   HAL_StatusTypeDef status = HAL_OK;
 886:Drivers/STM32L0xx_HAL_Driver/Src/stm32l0xx_hal_flash_ex.c ****   uint32_t tmp = 0, tmp1 = 0;
 887:Drivers/STM32L0xx_HAL_Driver/Src/stm32l0xx_hal_flash_ex.c **** 
ARM GAS  /tmp/cc70OH2t.s 			page 17


 888:Drivers/STM32L0xx_HAL_Driver/Src/stm32l0xx_hal_flash_ex.c ****   /* Check the parameters */
 889:Drivers/STM32L0xx_HAL_Driver/Src/stm32l0xx_hal_flash_ex.c ****   assert_param(IS_OB_BOR_LEVEL(OB_BOR));
 890:Drivers/STM32L0xx_HAL_Driver/Src/stm32l0xx_hal_flash_ex.c **** 
 891:Drivers/STM32L0xx_HAL_Driver/Src/stm32l0xx_hal_flash_ex.c ****   /* Get the User Option byte register */
 892:Drivers/STM32L0xx_HAL_Driver/Src/stm32l0xx_hal_flash_ex.c ****   tmp1 = OB->USER & ((~FLASH_OPTR_BOR_LEV) >> 16U);
 893:Drivers/STM32L0xx_HAL_Driver/Src/stm32l0xx_hal_flash_ex.c **** 
 894:Drivers/STM32L0xx_HAL_Driver/Src/stm32l0xx_hal_flash_ex.c ****   /* Calculate the option byte to write - [0xFF | nUSER | 0x00 | USER]*/
 895:Drivers/STM32L0xx_HAL_Driver/Src/stm32l0xx_hal_flash_ex.c ****   tmp = (uint32_t)~((OB_BOR | tmp1)) << 16U;
 896:Drivers/STM32L0xx_HAL_Driver/Src/stm32l0xx_hal_flash_ex.c ****   tmp |= (OB_BOR | tmp1);
 897:Drivers/STM32L0xx_HAL_Driver/Src/stm32l0xx_hal_flash_ex.c ****     
 898:Drivers/STM32L0xx_HAL_Driver/Src/stm32l0xx_hal_flash_ex.c ****   /* Wait for last operation to be completed */
 899:Drivers/STM32L0xx_HAL_Driver/Src/stm32l0xx_hal_flash_ex.c ****   status = FLASH_WaitForLastOperation(FLASH_TIMEOUT_VALUE);
 900:Drivers/STM32L0xx_HAL_Driver/Src/stm32l0xx_hal_flash_ex.c ****   
 901:Drivers/STM32L0xx_HAL_Driver/Src/stm32l0xx_hal_flash_ex.c ****   if(status == HAL_OK)
 902:Drivers/STM32L0xx_HAL_Driver/Src/stm32l0xx_hal_flash_ex.c ****   {  
 903:Drivers/STM32L0xx_HAL_Driver/Src/stm32l0xx_hal_flash_ex.c ****     /* Clean the error context */
 904:Drivers/STM32L0xx_HAL_Driver/Src/stm32l0xx_hal_flash_ex.c ****     pFlash.ErrorCode = HAL_FLASH_ERROR_NONE;
 905:Drivers/STM32L0xx_HAL_Driver/Src/stm32l0xx_hal_flash_ex.c **** 
 906:Drivers/STM32L0xx_HAL_Driver/Src/stm32l0xx_hal_flash_ex.c ****     /* Write the BOR Option Byte */            
 907:Drivers/STM32L0xx_HAL_Driver/Src/stm32l0xx_hal_flash_ex.c ****     OB->USER = tmp;
 908:Drivers/STM32L0xx_HAL_Driver/Src/stm32l0xx_hal_flash_ex.c **** 
 909:Drivers/STM32L0xx_HAL_Driver/Src/stm32l0xx_hal_flash_ex.c ****     /* Wait for last operation to be completed */
 910:Drivers/STM32L0xx_HAL_Driver/Src/stm32l0xx_hal_flash_ex.c ****     status = FLASH_WaitForLastOperation(FLASH_TIMEOUT_VALUE);
 911:Drivers/STM32L0xx_HAL_Driver/Src/stm32l0xx_hal_flash_ex.c ****   }
 912:Drivers/STM32L0xx_HAL_Driver/Src/stm32l0xx_hal_flash_ex.c ****   
 913:Drivers/STM32L0xx_HAL_Driver/Src/stm32l0xx_hal_flash_ex.c ****   /* Return the Option Byte BOR programmation Status */
 914:Drivers/STM32L0xx_HAL_Driver/Src/stm32l0xx_hal_flash_ex.c ****   return status;
 915:Drivers/STM32L0xx_HAL_Driver/Src/stm32l0xx_hal_flash_ex.c **** }
 916:Drivers/STM32L0xx_HAL_Driver/Src/stm32l0xx_hal_flash_ex.c **** 
 917:Drivers/STM32L0xx_HAL_Driver/Src/stm32l0xx_hal_flash_ex.c **** /**
 918:Drivers/STM32L0xx_HAL_Driver/Src/stm32l0xx_hal_flash_ex.c ****   * @brief  Sets or resets the BOOT bit1 option bit.
 919:Drivers/STM32L0xx_HAL_Driver/Src/stm32l0xx_hal_flash_ex.c ****   * @param  OB_BootBit1 Set or Reset the BOOT bit1 option bit.
 920:Drivers/STM32L0xx_HAL_Driver/Src/stm32l0xx_hal_flash_ex.c ****   *          This parameter can be one of the following values:
 921:Drivers/STM32L0xx_HAL_Driver/Src/stm32l0xx_hal_flash_ex.c ****   *             @arg @ref OB_BOOT_BIT1_RESET BOOT1 option bit reset
 922:Drivers/STM32L0xx_HAL_Driver/Src/stm32l0xx_hal_flash_ex.c ****   *             @arg @ref OB_BOOT_BIT1_SET BOOT1 option bit set
 923:Drivers/STM32L0xx_HAL_Driver/Src/stm32l0xx_hal_flash_ex.c ****   * @retval HAL status
 924:Drivers/STM32L0xx_HAL_Driver/Src/stm32l0xx_hal_flash_ex.c ****   */
 925:Drivers/STM32L0xx_HAL_Driver/Src/stm32l0xx_hal_flash_ex.c **** static HAL_StatusTypeDef  FLASH_OB_BOOTBit1Config(uint8_t OB_BootBit1)
 926:Drivers/STM32L0xx_HAL_Driver/Src/stm32l0xx_hal_flash_ex.c **** {
 927:Drivers/STM32L0xx_HAL_Driver/Src/stm32l0xx_hal_flash_ex.c ****   HAL_StatusTypeDef status = HAL_OK; 
 928:Drivers/STM32L0xx_HAL_Driver/Src/stm32l0xx_hal_flash_ex.c ****   uint32_t tmp = 0, tmp1 = 0, OB_Bits = ((uint32_t) OB_BootBit1) << 15;
 929:Drivers/STM32L0xx_HAL_Driver/Src/stm32l0xx_hal_flash_ex.c **** 
 930:Drivers/STM32L0xx_HAL_Driver/Src/stm32l0xx_hal_flash_ex.c ****   /* Check the parameters */
 931:Drivers/STM32L0xx_HAL_Driver/Src/stm32l0xx_hal_flash_ex.c ****   assert_param(IS_OB_BOOT1(OB_BootBit1));
 932:Drivers/STM32L0xx_HAL_Driver/Src/stm32l0xx_hal_flash_ex.c **** 
 933:Drivers/STM32L0xx_HAL_Driver/Src/stm32l0xx_hal_flash_ex.c ****   /* Get the User Option byte register */
 934:Drivers/STM32L0xx_HAL_Driver/Src/stm32l0xx_hal_flash_ex.c ****   tmp1 = OB->USER & ((~FLASH_OPTR_BOOT1) >> 16U);
 935:Drivers/STM32L0xx_HAL_Driver/Src/stm32l0xx_hal_flash_ex.c **** 
 936:Drivers/STM32L0xx_HAL_Driver/Src/stm32l0xx_hal_flash_ex.c ****   /* Calculate the user option byte to write */ 
 937:Drivers/STM32L0xx_HAL_Driver/Src/stm32l0xx_hal_flash_ex.c ****   tmp = (~(OB_Bits | tmp1)) << 16U;
 938:Drivers/STM32L0xx_HAL_Driver/Src/stm32l0xx_hal_flash_ex.c ****   tmp |= OB_Bits | tmp1;
 939:Drivers/STM32L0xx_HAL_Driver/Src/stm32l0xx_hal_flash_ex.c ****     
 940:Drivers/STM32L0xx_HAL_Driver/Src/stm32l0xx_hal_flash_ex.c ****   /* Wait for last operation to be completed */
 941:Drivers/STM32L0xx_HAL_Driver/Src/stm32l0xx_hal_flash_ex.c ****   status = FLASH_WaitForLastOperation(FLASH_TIMEOUT_VALUE);
 942:Drivers/STM32L0xx_HAL_Driver/Src/stm32l0xx_hal_flash_ex.c ****   
 943:Drivers/STM32L0xx_HAL_Driver/Src/stm32l0xx_hal_flash_ex.c ****   if(status == HAL_OK)
 944:Drivers/STM32L0xx_HAL_Driver/Src/stm32l0xx_hal_flash_ex.c ****   {  
ARM GAS  /tmp/cc70OH2t.s 			page 18


 945:Drivers/STM32L0xx_HAL_Driver/Src/stm32l0xx_hal_flash_ex.c ****     /* Clean the error context */
 946:Drivers/STM32L0xx_HAL_Driver/Src/stm32l0xx_hal_flash_ex.c ****     pFlash.ErrorCode = HAL_FLASH_ERROR_NONE;
 947:Drivers/STM32L0xx_HAL_Driver/Src/stm32l0xx_hal_flash_ex.c ****     /* Program OB */
 948:Drivers/STM32L0xx_HAL_Driver/Src/stm32l0xx_hal_flash_ex.c ****     OB->USER = tmp; 
 949:Drivers/STM32L0xx_HAL_Driver/Src/stm32l0xx_hal_flash_ex.c ****     /* Wait for last operation to be completed */
 950:Drivers/STM32L0xx_HAL_Driver/Src/stm32l0xx_hal_flash_ex.c ****     status = FLASH_WaitForLastOperation(FLASH_TIMEOUT_VALUE);
 951:Drivers/STM32L0xx_HAL_Driver/Src/stm32l0xx_hal_flash_ex.c ****   }
 952:Drivers/STM32L0xx_HAL_Driver/Src/stm32l0xx_hal_flash_ex.c **** 
 953:Drivers/STM32L0xx_HAL_Driver/Src/stm32l0xx_hal_flash_ex.c ****   return status;
 954:Drivers/STM32L0xx_HAL_Driver/Src/stm32l0xx_hal_flash_ex.c **** }
 955:Drivers/STM32L0xx_HAL_Driver/Src/stm32l0xx_hal_flash_ex.c **** 
 956:Drivers/STM32L0xx_HAL_Driver/Src/stm32l0xx_hal_flash_ex.c **** /**
 957:Drivers/STM32L0xx_HAL_Driver/Src/stm32l0xx_hal_flash_ex.c ****   * @brief  Returns the FLASH User Option Bytes values.
 958:Drivers/STM32L0xx_HAL_Driver/Src/stm32l0xx_hal_flash_ex.c ****   * @retval The FLASH User Option Bytes.
 959:Drivers/STM32L0xx_HAL_Driver/Src/stm32l0xx_hal_flash_ex.c ****   */
 960:Drivers/STM32L0xx_HAL_Driver/Src/stm32l0xx_hal_flash_ex.c **** static uint8_t FLASH_OB_GetUser(void)
 961:Drivers/STM32L0xx_HAL_Driver/Src/stm32l0xx_hal_flash_ex.c **** {
  27              		.loc 1 961 0
  28              		.cfi_startproc
  29              		@ args = 0, pretend = 0, frame = 0
  30              		@ frame_needed = 0, uses_anonymous_args = 0
  31              		@ link register save eliminated.
 962:Drivers/STM32L0xx_HAL_Driver/Src/stm32l0xx_hal_flash_ex.c ****   /* Return the User Option Byte */
 963:Drivers/STM32L0xx_HAL_Driver/Src/stm32l0xx_hal_flash_ex.c ****   return (uint8_t)((FLASH->OPTR & FLASH_OPTR_USER) >> 16U);
  32              		.loc 1 963 0
  33 0000 024B     		ldr	r3, .L2
  34 0002 D869     		ldr	r0, [r3, #28]
  35 0004 000C     		lsrs	r0, r0, #16
  36 0006 7023     		movs	r3, #112
  37 0008 1840     		ands	r0, r3
 964:Drivers/STM32L0xx_HAL_Driver/Src/stm32l0xx_hal_flash_ex.c **** }
  38              		.loc 1 964 0
  39              		@ sp needed
  40 000a 7047     		bx	lr
  41              	.L3:
  42              		.align	2
  43              	.L2:
  44 000c 00200240 		.word	1073881088
  45              		.cfi_endproc
  46              	.LFE54:
  48              		.section	.text.FLASH_OB_GetRDP,"ax",%progbits
  49              		.align	2
  50              		.code	16
  51              		.thumb_func
  53              	FLASH_OB_GetRDP:
  54              	.LFB55:
 965:Drivers/STM32L0xx_HAL_Driver/Src/stm32l0xx_hal_flash_ex.c **** 
 966:Drivers/STM32L0xx_HAL_Driver/Src/stm32l0xx_hal_flash_ex.c **** /**
 967:Drivers/STM32L0xx_HAL_Driver/Src/stm32l0xx_hal_flash_ex.c ****   * @brief  Returns the FLASH Read Protection level.
 968:Drivers/STM32L0xx_HAL_Driver/Src/stm32l0xx_hal_flash_ex.c ****   * @retval FLASH RDP level
 969:Drivers/STM32L0xx_HAL_Driver/Src/stm32l0xx_hal_flash_ex.c ****   *         This parameter can be one of the following values:
 970:Drivers/STM32L0xx_HAL_Driver/Src/stm32l0xx_hal_flash_ex.c ****   *            @arg @ref OB_RDP_LEVEL_0 No protection
 971:Drivers/STM32L0xx_HAL_Driver/Src/stm32l0xx_hal_flash_ex.c ****   *            @arg @ref OB_RDP_LEVEL_1 Read protection of the memory
 972:Drivers/STM32L0xx_HAL_Driver/Src/stm32l0xx_hal_flash_ex.c ****   *            @arg @ref OB_RDP_LEVEL_2 Full chip protection
 973:Drivers/STM32L0xx_HAL_Driver/Src/stm32l0xx_hal_flash_ex.c ****   */
 974:Drivers/STM32L0xx_HAL_Driver/Src/stm32l0xx_hal_flash_ex.c **** static uint8_t FLASH_OB_GetRDP(void)
 975:Drivers/STM32L0xx_HAL_Driver/Src/stm32l0xx_hal_flash_ex.c **** {
ARM GAS  /tmp/cc70OH2t.s 			page 19


  55              		.loc 1 975 0
  56              		.cfi_startproc
  57              		@ args = 0, pretend = 0, frame = 0
  58              		@ frame_needed = 0, uses_anonymous_args = 0
  59              		@ link register save eliminated.
 976:Drivers/STM32L0xx_HAL_Driver/Src/stm32l0xx_hal_flash_ex.c ****   return (uint8_t)(FLASH->OPTR & FLASH_OPTR_RDPROT);
  60              		.loc 1 976 0
  61 0000 014B     		ldr	r3, .L5
  62 0002 D869     		ldr	r0, [r3, #28]
  63 0004 C0B2     		uxtb	r0, r0
 977:Drivers/STM32L0xx_HAL_Driver/Src/stm32l0xx_hal_flash_ex.c **** }
  64              		.loc 1 977 0
  65              		@ sp needed
  66 0006 7047     		bx	lr
  67              	.L6:
  68              		.align	2
  69              	.L5:
  70 0008 00200240 		.word	1073881088
  71              		.cfi_endproc
  72              	.LFE55:
  74              		.section	.text.FLASH_OB_GetBOR,"ax",%progbits
  75              		.align	2
  76              		.code	16
  77              		.thumb_func
  79              	FLASH_OB_GetBOR:
  80              	.LFB56:
 978:Drivers/STM32L0xx_HAL_Driver/Src/stm32l0xx_hal_flash_ex.c **** 
 979:Drivers/STM32L0xx_HAL_Driver/Src/stm32l0xx_hal_flash_ex.c **** /**
 980:Drivers/STM32L0xx_HAL_Driver/Src/stm32l0xx_hal_flash_ex.c ****   * @brief  Returns the FLASH BOR level.
 981:Drivers/STM32L0xx_HAL_Driver/Src/stm32l0xx_hal_flash_ex.c ****   * @retval The BOR level Option Bytes.
 982:Drivers/STM32L0xx_HAL_Driver/Src/stm32l0xx_hal_flash_ex.c ****   */
 983:Drivers/STM32L0xx_HAL_Driver/Src/stm32l0xx_hal_flash_ex.c **** static uint8_t FLASH_OB_GetBOR(void)
 984:Drivers/STM32L0xx_HAL_Driver/Src/stm32l0xx_hal_flash_ex.c **** {
  81              		.loc 1 984 0
  82              		.cfi_startproc
  83              		@ args = 0, pretend = 0, frame = 0
  84              		@ frame_needed = 0, uses_anonymous_args = 0
  85              		@ link register save eliminated.
 985:Drivers/STM32L0xx_HAL_Driver/Src/stm32l0xx_hal_flash_ex.c ****   /* Return the BOR level */
 986:Drivers/STM32L0xx_HAL_Driver/Src/stm32l0xx_hal_flash_ex.c ****   return (uint8_t)((FLASH->OPTR & (uint32_t)FLASH_OPTR_BOR_LEV) >> 16U);
  86              		.loc 1 986 0
  87 0000 024B     		ldr	r3, .L8
  88 0002 D869     		ldr	r0, [r3, #28]
  89 0004 000C     		lsrs	r0, r0, #16
  90 0006 0F23     		movs	r3, #15
  91 0008 1840     		ands	r0, r3
 987:Drivers/STM32L0xx_HAL_Driver/Src/stm32l0xx_hal_flash_ex.c **** }
  92              		.loc 1 987 0
  93              		@ sp needed
  94 000a 7047     		bx	lr
  95              	.L9:
  96              		.align	2
  97              	.L8:
  98 000c 00200240 		.word	1073881088
  99              		.cfi_endproc
 100              	.LFE56:
 102              		.section	.text.FLASH_OB_GetBOOTBit1,"ax",%progbits
ARM GAS  /tmp/cc70OH2t.s 			page 20


 103              		.align	2
 104              		.code	16
 105              		.thumb_func
 107              	FLASH_OB_GetBOOTBit1:
 108              	.LFB57:
 988:Drivers/STM32L0xx_HAL_Driver/Src/stm32l0xx_hal_flash_ex.c **** 
 989:Drivers/STM32L0xx_HAL_Driver/Src/stm32l0xx_hal_flash_ex.c **** /**
 990:Drivers/STM32L0xx_HAL_Driver/Src/stm32l0xx_hal_flash_ex.c ****   * @brief  Returns the FLASH BOOT bit1 value.
 991:Drivers/STM32L0xx_HAL_Driver/Src/stm32l0xx_hal_flash_ex.c ****   * @retval The BOOT bit 1 value Option Bytes.
 992:Drivers/STM32L0xx_HAL_Driver/Src/stm32l0xx_hal_flash_ex.c ****   */
 993:Drivers/STM32L0xx_HAL_Driver/Src/stm32l0xx_hal_flash_ex.c **** static uint8_t FLASH_OB_GetBOOTBit1(void)
 994:Drivers/STM32L0xx_HAL_Driver/Src/stm32l0xx_hal_flash_ex.c **** {
 109              		.loc 1 994 0
 110              		.cfi_startproc
 111              		@ args = 0, pretend = 0, frame = 0
 112              		@ frame_needed = 0, uses_anonymous_args = 0
 113              		@ link register save eliminated.
 995:Drivers/STM32L0xx_HAL_Driver/Src/stm32l0xx_hal_flash_ex.c ****   /* Return the BOR level */
 996:Drivers/STM32L0xx_HAL_Driver/Src/stm32l0xx_hal_flash_ex.c ****   return (FLASH->OPTR & FLASH_OPTR_BOOT1) >> FLASH_OPTR_BOOT1_Pos;
 114              		.loc 1 996 0
 115 0000 014B     		ldr	r3, .L11
 116 0002 D869     		ldr	r0, [r3, #28]
 117 0004 C00F     		lsrs	r0, r0, #31
 997:Drivers/STM32L0xx_HAL_Driver/Src/stm32l0xx_hal_flash_ex.c **** 
 998:Drivers/STM32L0xx_HAL_Driver/Src/stm32l0xx_hal_flash_ex.c **** }
 118              		.loc 1 998 0
 119              		@ sp needed
 120 0006 7047     		bx	lr
 121              	.L12:
 122              		.align	2
 123              	.L11:
 124 0008 00200240 		.word	1073881088
 125              		.cfi_endproc
 126              	.LFE57:
 128              		.section	.text.FLASH_OB_GetWRP,"ax",%progbits
 129              		.align	2
 130              		.code	16
 131              		.thumb_func
 133              	FLASH_OB_GetWRP:
 134              	.LFB58:
 999:Drivers/STM32L0xx_HAL_Driver/Src/stm32l0xx_hal_flash_ex.c **** 
1000:Drivers/STM32L0xx_HAL_Driver/Src/stm32l0xx_hal_flash_ex.c **** /**
1001:Drivers/STM32L0xx_HAL_Driver/Src/stm32l0xx_hal_flash_ex.c ****   * @brief  Returns the FLASH Write Protection Option Bytes value.
1002:Drivers/STM32L0xx_HAL_Driver/Src/stm32l0xx_hal_flash_ex.c ****   * @retval The FLASH Write Protection Option Bytes value.
1003:Drivers/STM32L0xx_HAL_Driver/Src/stm32l0xx_hal_flash_ex.c ****   */
1004:Drivers/STM32L0xx_HAL_Driver/Src/stm32l0xx_hal_flash_ex.c **** static uint32_t FLASH_OB_GetWRP(void)
1005:Drivers/STM32L0xx_HAL_Driver/Src/stm32l0xx_hal_flash_ex.c **** {
 135              		.loc 1 1005 0
 136              		.cfi_startproc
 137              		@ args = 0, pretend = 0, frame = 0
 138              		@ frame_needed = 0, uses_anonymous_args = 0
 139              		@ link register save eliminated.
1006:Drivers/STM32L0xx_HAL_Driver/Src/stm32l0xx_hal_flash_ex.c ****   /* Return the FLASH write protection Register value */
1007:Drivers/STM32L0xx_HAL_Driver/Src/stm32l0xx_hal_flash_ex.c ****   return (uint32_t)(FLASH->WRPR);
 140              		.loc 1 1007 0
 141 0000 014B     		ldr	r3, .L14
 142 0002 186A     		ldr	r0, [r3, #32]
ARM GAS  /tmp/cc70OH2t.s 			page 21


1008:Drivers/STM32L0xx_HAL_Driver/Src/stm32l0xx_hal_flash_ex.c **** }
 143              		.loc 1 1008 0
 144              		@ sp needed
 145 0004 7047     		bx	lr
 146              	.L15:
 147 0006 C046     		.align	2
 148              	.L14:
 149 0008 00200240 		.word	1073881088
 150              		.cfi_endproc
 151              	.LFE58:
 153              		.section	.text.FLASH_OB_ProtectedSectorsConfig,"ax",%progbits
 154              		.align	2
 155              		.code	16
 156              		.thumb_func
 158              	FLASH_OB_ProtectedSectorsConfig:
 159              	.LFB59:
1009:Drivers/STM32L0xx_HAL_Driver/Src/stm32l0xx_hal_flash_ex.c **** 
1010:Drivers/STM32L0xx_HAL_Driver/Src/stm32l0xx_hal_flash_ex.c **** #if defined(STM32L071xx) || defined(STM32L072xx) || defined(STM32L073xx) || defined(STM32L081xx) ||
1011:Drivers/STM32L0xx_HAL_Driver/Src/stm32l0xx_hal_flash_ex.c **** /**
1012:Drivers/STM32L0xx_HAL_Driver/Src/stm32l0xx_hal_flash_ex.c ****   * @brief  Returns the FLASH Write Protection Option Bytes value.
1013:Drivers/STM32L0xx_HAL_Driver/Src/stm32l0xx_hal_flash_ex.c ****   * @retval The FLASH Write Protection Option Bytes value.
1014:Drivers/STM32L0xx_HAL_Driver/Src/stm32l0xx_hal_flash_ex.c ****   */
1015:Drivers/STM32L0xx_HAL_Driver/Src/stm32l0xx_hal_flash_ex.c **** static uint32_t FLASH_OB_GetWRP2(void)
1016:Drivers/STM32L0xx_HAL_Driver/Src/stm32l0xx_hal_flash_ex.c **** {
1017:Drivers/STM32L0xx_HAL_Driver/Src/stm32l0xx_hal_flash_ex.c ****   /* Return the FLASH write protection Register value */
1018:Drivers/STM32L0xx_HAL_Driver/Src/stm32l0xx_hal_flash_ex.c ****   return (uint32_t)(FLASH->WRPR2);
1019:Drivers/STM32L0xx_HAL_Driver/Src/stm32l0xx_hal_flash_ex.c **** }
1020:Drivers/STM32L0xx_HAL_Driver/Src/stm32l0xx_hal_flash_ex.c **** #endif /* STM32L071xx || STM32L072xx || STM32L073xx || STM32L081xx || STM32L082xx || STM32L083xx */
1021:Drivers/STM32L0xx_HAL_Driver/Src/stm32l0xx_hal_flash_ex.c **** 
1022:Drivers/STM32L0xx_HAL_Driver/Src/stm32l0xx_hal_flash_ex.c **** #if defined(STM32L071xx) || defined(STM32L072xx) || defined(STM32L073xx) || defined(STM32L081xx) ||
1023:Drivers/STM32L0xx_HAL_Driver/Src/stm32l0xx_hal_flash_ex.c **** /**
1024:Drivers/STM32L0xx_HAL_Driver/Src/stm32l0xx_hal_flash_ex.c ****   * @brief  Write Option Byte of the desired pages of the Flash.
1025:Drivers/STM32L0xx_HAL_Driver/Src/stm32l0xx_hal_flash_ex.c ****   * @param  Sector specifies the sectors to be write protected.
1026:Drivers/STM32L0xx_HAL_Driver/Src/stm32l0xx_hal_flash_ex.c ****   * @param  Sector2 specifies the sectors to be write protected (only stm32l07xxx and stm32l08xxx d
1027:Drivers/STM32L0xx_HAL_Driver/Src/stm32l0xx_hal_flash_ex.c ****   * @param  NewState new state of the specified FLASH Pages Write protection.
1028:Drivers/STM32L0xx_HAL_Driver/Src/stm32l0xx_hal_flash_ex.c ****   *   This parameter can be: 
1029:Drivers/STM32L0xx_HAL_Driver/Src/stm32l0xx_hal_flash_ex.c ****   *        @arg @ref OB_WRPSTATE_ENABLE
1030:Drivers/STM32L0xx_HAL_Driver/Src/stm32l0xx_hal_flash_ex.c ****   *        @arg @ref OB_WRPSTATE_DISABLE
1031:Drivers/STM32L0xx_HAL_Driver/Src/stm32l0xx_hal_flash_ex.c ****   * @retval HAL_StatusTypeDef
1032:Drivers/STM32L0xx_HAL_Driver/Src/stm32l0xx_hal_flash_ex.c ****   */
1033:Drivers/STM32L0xx_HAL_Driver/Src/stm32l0xx_hal_flash_ex.c **** static HAL_StatusTypeDef FLASH_OB_ProtectedSectorsConfig(uint32_t Sector, uint32_t Sector2, uint32_
1034:Drivers/STM32L0xx_HAL_Driver/Src/stm32l0xx_hal_flash_ex.c **** #else
1035:Drivers/STM32L0xx_HAL_Driver/Src/stm32l0xx_hal_flash_ex.c **** /**
1036:Drivers/STM32L0xx_HAL_Driver/Src/stm32l0xx_hal_flash_ex.c ****   * @brief  Write Option Byte of the desired pages of the Flash.
1037:Drivers/STM32L0xx_HAL_Driver/Src/stm32l0xx_hal_flash_ex.c ****   * @param  Sector specifies the sectors to be write protected.
1038:Drivers/STM32L0xx_HAL_Driver/Src/stm32l0xx_hal_flash_ex.c ****   * @param  NewState new state of the specified FLASH Pages Write protection.
1039:Drivers/STM32L0xx_HAL_Driver/Src/stm32l0xx_hal_flash_ex.c ****   *   This parameter can be: 
1040:Drivers/STM32L0xx_HAL_Driver/Src/stm32l0xx_hal_flash_ex.c ****   *        @arg @ref OB_WRPSTATE_ENABLE
1041:Drivers/STM32L0xx_HAL_Driver/Src/stm32l0xx_hal_flash_ex.c ****   *        @arg @ref OB_WRPSTATE_DISABLE
1042:Drivers/STM32L0xx_HAL_Driver/Src/stm32l0xx_hal_flash_ex.c ****   * @retval HAL_StatusTypeDef
1043:Drivers/STM32L0xx_HAL_Driver/Src/stm32l0xx_hal_flash_ex.c ****   */
1044:Drivers/STM32L0xx_HAL_Driver/Src/stm32l0xx_hal_flash_ex.c **** static HAL_StatusTypeDef FLASH_OB_ProtectedSectorsConfig(uint32_t Sector, uint32_t NewState)
1045:Drivers/STM32L0xx_HAL_Driver/Src/stm32l0xx_hal_flash_ex.c **** #endif
1046:Drivers/STM32L0xx_HAL_Driver/Src/stm32l0xx_hal_flash_ex.c **** {
 160              		.loc 1 1046 0
 161              		.cfi_startproc
 162              		@ args = 0, pretend = 0, frame = 0
ARM GAS  /tmp/cc70OH2t.s 			page 22


 163              		@ frame_needed = 0, uses_anonymous_args = 0
 164              	.LVL0:
 165 0000 70B5     		push	{r4, r5, r6, lr}
 166              	.LCFI0:
 167              		.cfi_def_cfa_offset 16
 168              		.cfi_offset 4, -16
 169              		.cfi_offset 5, -12
 170              		.cfi_offset 6, -8
 171              		.cfi_offset 14, -4
 172 0002 0400     		movs	r4, r0
 173 0004 0D00     		movs	r5, r1
 174              	.LVL1:
1047:Drivers/STM32L0xx_HAL_Driver/Src/stm32l0xx_hal_flash_ex.c ****   HAL_StatusTypeDef status = HAL_OK;
1048:Drivers/STM32L0xx_HAL_Driver/Src/stm32l0xx_hal_flash_ex.c ****   uint32_t WRP_Data = 0;
1049:Drivers/STM32L0xx_HAL_Driver/Src/stm32l0xx_hal_flash_ex.c ****   uint32_t OB_WRP = Sector;
1050:Drivers/STM32L0xx_HAL_Driver/Src/stm32l0xx_hal_flash_ex.c ****   
1051:Drivers/STM32L0xx_HAL_Driver/Src/stm32l0xx_hal_flash_ex.c ****   /* Wait for last operation to be completed */
1052:Drivers/STM32L0xx_HAL_Driver/Src/stm32l0xx_hal_flash_ex.c ****   status = FLASH_WaitForLastOperation(FLASH_TIMEOUT_VALUE);
 175              		.loc 1 1052 0
 176 0006 1148     		ldr	r0, .L19
 177              	.LVL2:
 178 0008 FFF7FEFF 		bl	FLASH_WaitForLastOperation
 179              	.LVL3:
1053:Drivers/STM32L0xx_HAL_Driver/Src/stm32l0xx_hal_flash_ex.c ****  
1054:Drivers/STM32L0xx_HAL_Driver/Src/stm32l0xx_hal_flash_ex.c ****   if(status == HAL_OK)
 180              		.loc 1 1054 0
 181 000c 0028     		cmp	r0, #0
 182 000e 19D1     		bne	.L17
1055:Drivers/STM32L0xx_HAL_Driver/Src/stm32l0xx_hal_flash_ex.c ****   {
1056:Drivers/STM32L0xx_HAL_Driver/Src/stm32l0xx_hal_flash_ex.c ****     /* Clean the error context */
1057:Drivers/STM32L0xx_HAL_Driver/Src/stm32l0xx_hal_flash_ex.c ****     pFlash.ErrorCode = HAL_FLASH_ERROR_NONE;
 183              		.loc 1 1057 0
 184 0010 0022     		movs	r2, #0
 185 0012 0F4B     		ldr	r3, .L19+4
 186 0014 5A61     		str	r2, [r3, #20]
1058:Drivers/STM32L0xx_HAL_Driver/Src/stm32l0xx_hal_flash_ex.c **** 
1059:Drivers/STM32L0xx_HAL_Driver/Src/stm32l0xx_hal_flash_ex.c ****     /* Update WRP only if at least 1 selected sector */
1060:Drivers/STM32L0xx_HAL_Driver/Src/stm32l0xx_hal_flash_ex.c ****     if (OB_WRP != 0x00000000U)
 187              		.loc 1 1060 0
 188 0016 002C     		cmp	r4, #0
 189 0018 14D0     		beq	.L17
1061:Drivers/STM32L0xx_HAL_Driver/Src/stm32l0xx_hal_flash_ex.c ****     {
1062:Drivers/STM32L0xx_HAL_Driver/Src/stm32l0xx_hal_flash_ex.c ****       if ((OB_WRP & WRP_MASK_LOW) != 0x00000000U)
 190              		.loc 1 1062 0
 191 001a 2304     		lsls	r3, r4, #16
 192 001c 12D0     		beq	.L17
1063:Drivers/STM32L0xx_HAL_Driver/Src/stm32l0xx_hal_flash_ex.c ****       {
1064:Drivers/STM32L0xx_HAL_Driver/Src/stm32l0xx_hal_flash_ex.c ****         if (NewState != OB_WRPSTATE_DISABLE)
 193              		.loc 1 1064 0
 194 001e 002D     		cmp	r5, #0
 195 0020 08D0     		beq	.L18
1065:Drivers/STM32L0xx_HAL_Driver/Src/stm32l0xx_hal_flash_ex.c ****         {
1066:Drivers/STM32L0xx_HAL_Driver/Src/stm32l0xx_hal_flash_ex.c ****           WRP_Data = (uint16_t)(((OB_WRP & WRP_MASK_LOW) | OB->WRP01));
 196              		.loc 1 1066 0
 197 0022 0C4A     		ldr	r2, .L19+8
 198 0024 9368     		ldr	r3, [r2, #8]
 199 0026 1C43     		orrs	r4, r3
ARM GAS  /tmp/cc70OH2t.s 			page 23


 200              	.LVL4:
 201 0028 A4B2     		uxth	r4, r4
 202              	.LVL5:
1067:Drivers/STM32L0xx_HAL_Driver/Src/stm32l0xx_hal_flash_ex.c ****           OB->WRP01 = (uint32_t)(~(WRP_Data) << 16U) | (WRP_Data);
 203              		.loc 1 1067 0
 204 002a E343     		mvns	r3, r4
 205 002c 1B04     		lsls	r3, r3, #16
 206 002e 1C43     		orrs	r4, r3
 207              	.LVL6:
 208 0030 9460     		str	r4, [r2, #8]
 209 0032 07E0     		b	.L17
 210              	.LVL7:
 211              	.L18:
1068:Drivers/STM32L0xx_HAL_Driver/Src/stm32l0xx_hal_flash_ex.c ****         }             
1069:Drivers/STM32L0xx_HAL_Driver/Src/stm32l0xx_hal_flash_ex.c ****         else
1070:Drivers/STM32L0xx_HAL_Driver/Src/stm32l0xx_hal_flash_ex.c ****         {
1071:Drivers/STM32L0xx_HAL_Driver/Src/stm32l0xx_hal_flash_ex.c ****           WRP_Data = (uint16_t)(~OB_WRP & (WRP_MASK_LOW & OB->WRP01));
 212              		.loc 1 1071 0
 213 0034 0749     		ldr	r1, .L19+8
 214 0036 8B68     		ldr	r3, [r1, #8]
 215 0038 A343     		bics	r3, r4
 216 003a 9BB2     		uxth	r3, r3
 217              	.LVL8:
1072:Drivers/STM32L0xx_HAL_Driver/Src/stm32l0xx_hal_flash_ex.c ****           OB->WRP01 =  (uint32_t)((~WRP_Data) << 16U) | (WRP_Data);
 218              		.loc 1 1072 0
 219 003c DA43     		mvns	r2, r3
 220 003e 1204     		lsls	r2, r2, #16
 221 0040 1343     		orrs	r3, r2
 222              	.LVL9:
 223 0042 8B60     		str	r3, [r1, #8]
 224              	.LVL10:
 225              	.L17:
1073:Drivers/STM32L0xx_HAL_Driver/Src/stm32l0xx_hal_flash_ex.c ****         }
1074:Drivers/STM32L0xx_HAL_Driver/Src/stm32l0xx_hal_flash_ex.c ****       }
1075:Drivers/STM32L0xx_HAL_Driver/Src/stm32l0xx_hal_flash_ex.c ****     }
1076:Drivers/STM32L0xx_HAL_Driver/Src/stm32l0xx_hal_flash_ex.c **** #if defined(STM32L071xx) || defined(STM32L072xx) || defined(STM32L073xx) || defined(STM32L081xx) ||
1077:Drivers/STM32L0xx_HAL_Driver/Src/stm32l0xx_hal_flash_ex.c ****     /* Update WRP only if at least 1 selected sector */
1078:Drivers/STM32L0xx_HAL_Driver/Src/stm32l0xx_hal_flash_ex.c ****     if (OB_WRP != 0x00000000U)
1079:Drivers/STM32L0xx_HAL_Driver/Src/stm32l0xx_hal_flash_ex.c ****     {
1080:Drivers/STM32L0xx_HAL_Driver/Src/stm32l0xx_hal_flash_ex.c ****       if ((OB_WRP & WRP_MASK_HIGH) != 0x00000000U)
1081:Drivers/STM32L0xx_HAL_Driver/Src/stm32l0xx_hal_flash_ex.c ****       {
1082:Drivers/STM32L0xx_HAL_Driver/Src/stm32l0xx_hal_flash_ex.c ****         if (NewState != OB_WRPSTATE_DISABLE)
1083:Drivers/STM32L0xx_HAL_Driver/Src/stm32l0xx_hal_flash_ex.c ****         {
1084:Drivers/STM32L0xx_HAL_Driver/Src/stm32l0xx_hal_flash_ex.c ****           WRP_Data = (uint16_t)((((OB_WRP & WRP_MASK_HIGH) >> 16U | OB->WRP23))); 
1085:Drivers/STM32L0xx_HAL_Driver/Src/stm32l0xx_hal_flash_ex.c ****           OB->WRP23 = (uint32_t)(~(WRP_Data) << 16U) | (WRP_Data);
1086:Drivers/STM32L0xx_HAL_Driver/Src/stm32l0xx_hal_flash_ex.c ****         }             
1087:Drivers/STM32L0xx_HAL_Driver/Src/stm32l0xx_hal_flash_ex.c ****         else
1088:Drivers/STM32L0xx_HAL_Driver/Src/stm32l0xx_hal_flash_ex.c ****         {
1089:Drivers/STM32L0xx_HAL_Driver/Src/stm32l0xx_hal_flash_ex.c ****           WRP_Data = (uint16_t)((((~OB_WRP & WRP_MASK_HIGH) >> 16U & OB->WRP23))); 
1090:Drivers/STM32L0xx_HAL_Driver/Src/stm32l0xx_hal_flash_ex.c ****           OB->WRP23 = (uint32_t)((~WRP_Data) << 16U) | (WRP_Data);
1091:Drivers/STM32L0xx_HAL_Driver/Src/stm32l0xx_hal_flash_ex.c ****         } 
1092:Drivers/STM32L0xx_HAL_Driver/Src/stm32l0xx_hal_flash_ex.c ****       }
1093:Drivers/STM32L0xx_HAL_Driver/Src/stm32l0xx_hal_flash_ex.c ****     }
1094:Drivers/STM32L0xx_HAL_Driver/Src/stm32l0xx_hal_flash_ex.c **** 
1095:Drivers/STM32L0xx_HAL_Driver/Src/stm32l0xx_hal_flash_ex.c ****     OB_WRP = Sector2;
1096:Drivers/STM32L0xx_HAL_Driver/Src/stm32l0xx_hal_flash_ex.c ****     /* Update WRP only if at least 1 selected sector */
1097:Drivers/STM32L0xx_HAL_Driver/Src/stm32l0xx_hal_flash_ex.c ****     if (OB_WRP != 0x00000000U)
ARM GAS  /tmp/cc70OH2t.s 			page 24


1098:Drivers/STM32L0xx_HAL_Driver/Src/stm32l0xx_hal_flash_ex.c ****     {
1099:Drivers/STM32L0xx_HAL_Driver/Src/stm32l0xx_hal_flash_ex.c ****       if ((OB_WRP & WRP_MASK_LOW) != 0x00000000U)
1100:Drivers/STM32L0xx_HAL_Driver/Src/stm32l0xx_hal_flash_ex.c ****       {
1101:Drivers/STM32L0xx_HAL_Driver/Src/stm32l0xx_hal_flash_ex.c ****         if (NewState != OB_WRPSTATE_DISABLE)
1102:Drivers/STM32L0xx_HAL_Driver/Src/stm32l0xx_hal_flash_ex.c ****         {
1103:Drivers/STM32L0xx_HAL_Driver/Src/stm32l0xx_hal_flash_ex.c ****           WRP_Data = (uint16_t)(((OB_WRP & WRP_MASK_LOW) | OB->WRP45));
1104:Drivers/STM32L0xx_HAL_Driver/Src/stm32l0xx_hal_flash_ex.c ****           OB->WRP45 =(uint32_t)(~(WRP_Data) << 16U) | (WRP_Data);
1105:Drivers/STM32L0xx_HAL_Driver/Src/stm32l0xx_hal_flash_ex.c ****         }             
1106:Drivers/STM32L0xx_HAL_Driver/Src/stm32l0xx_hal_flash_ex.c ****         else
1107:Drivers/STM32L0xx_HAL_Driver/Src/stm32l0xx_hal_flash_ex.c ****         {
1108:Drivers/STM32L0xx_HAL_Driver/Src/stm32l0xx_hal_flash_ex.c ****           WRP_Data = (uint16_t)(~OB_WRP & (WRP_MASK_LOW & OB->WRP45));
1109:Drivers/STM32L0xx_HAL_Driver/Src/stm32l0xx_hal_flash_ex.c ****           OB->WRP45 = (uint32_t)((~WRP_Data) << 16U) | (WRP_Data);
1110:Drivers/STM32L0xx_HAL_Driver/Src/stm32l0xx_hal_flash_ex.c ****         }
1111:Drivers/STM32L0xx_HAL_Driver/Src/stm32l0xx_hal_flash_ex.c ****       }
1112:Drivers/STM32L0xx_HAL_Driver/Src/stm32l0xx_hal_flash_ex.c ****     }
1113:Drivers/STM32L0xx_HAL_Driver/Src/stm32l0xx_hal_flash_ex.c **** #endif /* STM32L071xx || STM32L072xx || STM32L073xx || STM32L081xx || STM32L082xx || STM32L083xx */
1114:Drivers/STM32L0xx_HAL_Driver/Src/stm32l0xx_hal_flash_ex.c ****   }
1115:Drivers/STM32L0xx_HAL_Driver/Src/stm32l0xx_hal_flash_ex.c ****   /* Wait for last operation to be completed */
1116:Drivers/STM32L0xx_HAL_Driver/Src/stm32l0xx_hal_flash_ex.c ****   status = FLASH_WaitForLastOperation(FLASH_TIMEOUT_VALUE);
 226              		.loc 1 1116 0
 227 0044 0148     		ldr	r0, .L19
 228              	.LVL11:
 229 0046 FFF7FEFF 		bl	FLASH_WaitForLastOperation
 230              	.LVL12:
1117:Drivers/STM32L0xx_HAL_Driver/Src/stm32l0xx_hal_flash_ex.c **** 
1118:Drivers/STM32L0xx_HAL_Driver/Src/stm32l0xx_hal_flash_ex.c ****   /* Return the write protection operation Status */
1119:Drivers/STM32L0xx_HAL_Driver/Src/stm32l0xx_hal_flash_ex.c ****   return status;      
1120:Drivers/STM32L0xx_HAL_Driver/Src/stm32l0xx_hal_flash_ex.c **** }
 231              		.loc 1 1120 0
 232              		@ sp needed
 233              	.LVL13:
 234 004a 70BD     		pop	{r4, r5, r6, pc}
 235              	.L20:
 236              		.align	2
 237              	.L19:
 238 004c 50C30000 		.word	50000
 239 0050 00000000 		.word	pFlash
 240 0054 0000F81F 		.word	536346624
 241              		.cfi_endproc
 242              	.LFE59:
 244              		.section	.text.FLASH_OB_RDPConfig,"ax",%progbits
 245              		.align	2
 246              		.code	16
 247              		.thumb_func
 249              	FLASH_OB_RDPConfig:
 250              	.LFB51:
 833:Drivers/STM32L0xx_HAL_Driver/Src/stm32l0xx_hal_flash_ex.c ****   HAL_StatusTypeDef status = HAL_OK;
 251              		.loc 1 833 0
 252              		.cfi_startproc
 253              		@ args = 0, pretend = 0, frame = 0
 254              		@ frame_needed = 0, uses_anonymous_args = 0
 255              	.LVL14:
 256 0000 10B5     		push	{r4, lr}
 257              	.LCFI1:
 258              		.cfi_def_cfa_offset 8
 259              		.cfi_offset 4, -8
 260              		.cfi_offset 14, -4
ARM GAS  /tmp/cc70OH2t.s 			page 25


 261              	.LVL15:
 840:Drivers/STM32L0xx_HAL_Driver/Src/stm32l0xx_hal_flash_ex.c ****   
 262              		.loc 1 840 0
 263 0002 0C4B     		ldr	r3, .L23
 264 0004 1A68     		ldr	r2, [r3]
 265              	.LVL16:
 844:Drivers/STM32L0xx_HAL_Driver/Src/stm32l0xx_hal_flash_ex.c **** #endif
 266              		.loc 1 844 0
 267 0006 1A68     		ldr	r2, [r3]
 268 0008 8023     		movs	r3, #128
 269 000a 5B00     		lsls	r3, r3, #1
 270 000c 1340     		ands	r3, r2
 271              	.LVL17:
 848:Drivers/STM32L0xx_HAL_Driver/Src/stm32l0xx_hal_flash_ex.c ****     tmp2 = (uint32_t)(((uint32_t)((uint32_t)(tmp1) << 16U)) | ((uint32_t)(OB_RDP | tmp3)));
 272              		.loc 1 848 0
 273 000e 1843     		orrs	r0, r3
 274              	.LVL18:
 275 0010 C343     		mvns	r3, r0
 276              	.LVL19:
 849:Drivers/STM32L0xx_HAL_Driver/Src/stm32l0xx_hal_flash_ex.c **** 
 277              		.loc 1 849 0
 278 0012 1B04     		lsls	r3, r3, #16
 279              	.LVL20:
 280 0014 1843     		orrs	r0, r3
 281              	.LVL21:
 282 0016 0400     		movs	r4, r0
 283              	.LVL22:
 852:Drivers/STM32L0xx_HAL_Driver/Src/stm32l0xx_hal_flash_ex.c **** 
 284              		.loc 1 852 0
 285 0018 0748     		ldr	r0, .L23+4
 286              	.LVL23:
 287 001a FFF7FEFF 		bl	FLASH_WaitForLastOperation
 288              	.LVL24:
 854:Drivers/STM32L0xx_HAL_Driver/Src/stm32l0xx_hal_flash_ex.c ****     {
 289              		.loc 1 854 0
 290 001e 0028     		cmp	r0, #0
 291 0020 07D1     		bne	.L22
 857:Drivers/STM32L0xx_HAL_Driver/Src/stm32l0xx_hal_flash_ex.c **** 
 292              		.loc 1 857 0
 293 0022 0022     		movs	r2, #0
 294 0024 054B     		ldr	r3, .L23+8
 295 0026 5A61     		str	r2, [r3, #20]
 860:Drivers/STM32L0xx_HAL_Driver/Src/stm32l0xx_hal_flash_ex.c **** 
 296              		.loc 1 860 0
 297 0028 024B     		ldr	r3, .L23
 298 002a 1C60     		str	r4, [r3]
 863:Drivers/STM32L0xx_HAL_Driver/Src/stm32l0xx_hal_flash_ex.c ****     }
 299              		.loc 1 863 0
 300 002c 0248     		ldr	r0, .L23+4
 301              	.LVL25:
 302 002e FFF7FEFF 		bl	FLASH_WaitForLastOperation
 303              	.LVL26:
 304              	.L22:
 868:Drivers/STM32L0xx_HAL_Driver/Src/stm32l0xx_hal_flash_ex.c **** 
 305              		.loc 1 868 0
 306              		@ sp needed
 307              	.LVL27:
ARM GAS  /tmp/cc70OH2t.s 			page 26


 308 0032 10BD     		pop	{r4, pc}
 309              	.L24:
 310              		.align	2
 311              	.L23:
 312 0034 0000F81F 		.word	536346624
 313 0038 50C30000 		.word	50000
 314 003c 00000000 		.word	pFlash
 315              		.cfi_endproc
 316              	.LFE51:
 318              		.section	.text.FLASH_OB_UserConfig,"ax",%progbits
 319              		.align	2
 320              		.code	16
 321              		.thumb_func
 323              	FLASH_OB_UserConfig:
 324              	.LFB60:
1121:Drivers/STM32L0xx_HAL_Driver/Src/stm32l0xx_hal_flash_ex.c **** 
1122:Drivers/STM32L0xx_HAL_Driver/Src/stm32l0xx_hal_flash_ex.c **** /**
1123:Drivers/STM32L0xx_HAL_Driver/Src/stm32l0xx_hal_flash_ex.c ****   * @brief  Programs the FLASH User Option Byte: IWDG_SW / RST_STOP / RST_STDBY.
1124:Drivers/STM32L0xx_HAL_Driver/Src/stm32l0xx_hal_flash_ex.c ****   * @param  OB_IWDG Selects the WDG mode.
1125:Drivers/STM32L0xx_HAL_Driver/Src/stm32l0xx_hal_flash_ex.c ****   *   This parameter can be one of the following values:
1126:Drivers/STM32L0xx_HAL_Driver/Src/stm32l0xx_hal_flash_ex.c ****   *     @arg @ref OB_IWDG_SW Software WDG selected
1127:Drivers/STM32L0xx_HAL_Driver/Src/stm32l0xx_hal_flash_ex.c ****   *     @arg @ref OB_IWDG_HW Hardware WDG selected
1128:Drivers/STM32L0xx_HAL_Driver/Src/stm32l0xx_hal_flash_ex.c ****   * @param  OB_STOP Reset event when entering STOP mode.
1129:Drivers/STM32L0xx_HAL_Driver/Src/stm32l0xx_hal_flash_ex.c ****   *   This parameter can be one of the following values:
1130:Drivers/STM32L0xx_HAL_Driver/Src/stm32l0xx_hal_flash_ex.c ****   *     @arg @ref OB_STOP_NORST No reset generated when entering in STOP
1131:Drivers/STM32L0xx_HAL_Driver/Src/stm32l0xx_hal_flash_ex.c ****   *     @arg @ref OB_STOP_RST Reset generated when entering in STOP
1132:Drivers/STM32L0xx_HAL_Driver/Src/stm32l0xx_hal_flash_ex.c ****   * @param  OB_STDBY Reset event when entering Standby mode.
1133:Drivers/STM32L0xx_HAL_Driver/Src/stm32l0xx_hal_flash_ex.c ****   *   This parameter can be one of the following values:
1134:Drivers/STM32L0xx_HAL_Driver/Src/stm32l0xx_hal_flash_ex.c ****   *     @arg @ref OB_STDBY_NORST No reset generated when entering in STANDBY
1135:Drivers/STM32L0xx_HAL_Driver/Src/stm32l0xx_hal_flash_ex.c ****   *     @arg @ref OB_STDBY_RST Reset generated when entering in STANDBY
1136:Drivers/STM32L0xx_HAL_Driver/Src/stm32l0xx_hal_flash_ex.c ****   * @retval HAL status
1137:Drivers/STM32L0xx_HAL_Driver/Src/stm32l0xx_hal_flash_ex.c ****   */
1138:Drivers/STM32L0xx_HAL_Driver/Src/stm32l0xx_hal_flash_ex.c **** static HAL_StatusTypeDef FLASH_OB_UserConfig(uint8_t OB_IWDG, uint8_t OB_STOP, uint8_t OB_STDBY)
1139:Drivers/STM32L0xx_HAL_Driver/Src/stm32l0xx_hal_flash_ex.c **** {
 325              		.loc 1 1139 0
 326              		.cfi_startproc
 327              		@ args = 0, pretend = 0, frame = 0
 328              		@ frame_needed = 0, uses_anonymous_args = 0
 329              	.LVL28:
 330 0000 10B5     		push	{r4, lr}
 331              	.LCFI2:
 332              		.cfi_def_cfa_offset 8
 333              		.cfi_offset 4, -8
 334              		.cfi_offset 14, -4
 335              	.LVL29:
1140:Drivers/STM32L0xx_HAL_Driver/Src/stm32l0xx_hal_flash_ex.c ****   HAL_StatusTypeDef status = HAL_OK; 
1141:Drivers/STM32L0xx_HAL_Driver/Src/stm32l0xx_hal_flash_ex.c ****   uint32_t tmp = 0, tmp1 = 0;
1142:Drivers/STM32L0xx_HAL_Driver/Src/stm32l0xx_hal_flash_ex.c **** 
1143:Drivers/STM32L0xx_HAL_Driver/Src/stm32l0xx_hal_flash_ex.c ****   /* Check the parameters */
1144:Drivers/STM32L0xx_HAL_Driver/Src/stm32l0xx_hal_flash_ex.c ****   assert_param(IS_OB_IWDG_SOURCE(OB_IWDG));
1145:Drivers/STM32L0xx_HAL_Driver/Src/stm32l0xx_hal_flash_ex.c ****   assert_param(IS_OB_STOP_SOURCE(OB_STOP));
1146:Drivers/STM32L0xx_HAL_Driver/Src/stm32l0xx_hal_flash_ex.c ****   assert_param(IS_OB_STDBY_SOURCE(OB_STDBY));
1147:Drivers/STM32L0xx_HAL_Driver/Src/stm32l0xx_hal_flash_ex.c **** 
1148:Drivers/STM32L0xx_HAL_Driver/Src/stm32l0xx_hal_flash_ex.c ****   /* Get the User Option byte register */
1149:Drivers/STM32L0xx_HAL_Driver/Src/stm32l0xx_hal_flash_ex.c ****   tmp1 = OB->USER & ((~FLASH_OPTR_USER) >> 16U);
 336              		.loc 1 1149 0
 337 0002 0C4B     		ldr	r3, .L27
ARM GAS  /tmp/cc70OH2t.s 			page 27


 338 0004 5C68     		ldr	r4, [r3, #4]
 339 0006 0C4B     		ldr	r3, .L27+4
 340 0008 2340     		ands	r3, r4
 341              	.LVL30:
1150:Drivers/STM32L0xx_HAL_Driver/Src/stm32l0xx_hal_flash_ex.c **** 
1151:Drivers/STM32L0xx_HAL_Driver/Src/stm32l0xx_hal_flash_ex.c ****   /* Calculate the user option byte to write */ 
1152:Drivers/STM32L0xx_HAL_Driver/Src/stm32l0xx_hal_flash_ex.c ****   tmp = (uint32_t)(((uint32_t)~((uint32_t)((uint32_t)(OB_IWDG) | (uint32_t)(OB_STOP) | (uint32_t)(O
 342              		.loc 1 1152 0
 343 000a 0143     		orrs	r1, r0
 344              	.LVL31:
 345 000c 0A43     		orrs	r2, r1
 346              	.LVL32:
 347 000e 1A43     		orrs	r2, r3
 348 0010 D043     		mvns	r0, r2
 349              	.LVL33:
 350 0012 0004     		lsls	r0, r0, #16
 351              	.LVL34:
1153:Drivers/STM32L0xx_HAL_Driver/Src/stm32l0xx_hal_flash_ex.c ****   tmp |= ((uint32_t)(OB_IWDG) | ((uint32_t)OB_STOP) | (uint32_t)(OB_STDBY) | tmp1);
 352              		.loc 1 1153 0
 353 0014 0243     		orrs	r2, r0
 354 0016 1400     		movs	r4, r2
 355              	.LVL35:
1154:Drivers/STM32L0xx_HAL_Driver/Src/stm32l0xx_hal_flash_ex.c ****   
1155:Drivers/STM32L0xx_HAL_Driver/Src/stm32l0xx_hal_flash_ex.c ****   /* Wait for last operation to be completed */
1156:Drivers/STM32L0xx_HAL_Driver/Src/stm32l0xx_hal_flash_ex.c ****   status = FLASH_WaitForLastOperation(FLASH_TIMEOUT_VALUE);
 356              		.loc 1 1156 0
 357 0018 0848     		ldr	r0, .L27+8
 358 001a FFF7FEFF 		bl	FLASH_WaitForLastOperation
 359              	.LVL36:
1157:Drivers/STM32L0xx_HAL_Driver/Src/stm32l0xx_hal_flash_ex.c ****   
1158:Drivers/STM32L0xx_HAL_Driver/Src/stm32l0xx_hal_flash_ex.c ****   if(status == HAL_OK)
 360              		.loc 1 1158 0
 361 001e 0028     		cmp	r0, #0
 362 0020 07D1     		bne	.L26
1159:Drivers/STM32L0xx_HAL_Driver/Src/stm32l0xx_hal_flash_ex.c ****   {  
1160:Drivers/STM32L0xx_HAL_Driver/Src/stm32l0xx_hal_flash_ex.c ****     /* Clean the error context */
1161:Drivers/STM32L0xx_HAL_Driver/Src/stm32l0xx_hal_flash_ex.c ****     pFlash.ErrorCode = HAL_FLASH_ERROR_NONE;
 363              		.loc 1 1161 0
 364 0022 0022     		movs	r2, #0
 365 0024 064B     		ldr	r3, .L27+12
 366 0026 5A61     		str	r2, [r3, #20]
1162:Drivers/STM32L0xx_HAL_Driver/Src/stm32l0xx_hal_flash_ex.c **** 
1163:Drivers/STM32L0xx_HAL_Driver/Src/stm32l0xx_hal_flash_ex.c ****     /* Write the User Option Byte */
1164:Drivers/STM32L0xx_HAL_Driver/Src/stm32l0xx_hal_flash_ex.c ****     OB->USER = tmp;
 367              		.loc 1 1164 0
 368 0028 024B     		ldr	r3, .L27
 369 002a 5C60     		str	r4, [r3, #4]
1165:Drivers/STM32L0xx_HAL_Driver/Src/stm32l0xx_hal_flash_ex.c ****     
1166:Drivers/STM32L0xx_HAL_Driver/Src/stm32l0xx_hal_flash_ex.c ****     /* Wait for last operation to be completed */
1167:Drivers/STM32L0xx_HAL_Driver/Src/stm32l0xx_hal_flash_ex.c ****     status = FLASH_WaitForLastOperation(FLASH_TIMEOUT_VALUE);
 370              		.loc 1 1167 0
 371 002c 0348     		ldr	r0, .L27+8
 372              	.LVL37:
 373 002e FFF7FEFF 		bl	FLASH_WaitForLastOperation
 374              	.LVL38:
 375              	.L26:
1168:Drivers/STM32L0xx_HAL_Driver/Src/stm32l0xx_hal_flash_ex.c ****   }
ARM GAS  /tmp/cc70OH2t.s 			page 28


1169:Drivers/STM32L0xx_HAL_Driver/Src/stm32l0xx_hal_flash_ex.c **** 
1170:Drivers/STM32L0xx_HAL_Driver/Src/stm32l0xx_hal_flash_ex.c ****   /* Return the Option Byte program Status */
1171:Drivers/STM32L0xx_HAL_Driver/Src/stm32l0xx_hal_flash_ex.c ****   return status;
1172:Drivers/STM32L0xx_HAL_Driver/Src/stm32l0xx_hal_flash_ex.c **** }
 376              		.loc 1 1172 0
 377              		@ sp needed
 378              	.LVL39:
 379 0032 10BD     		pop	{r4, pc}
 380              	.L28:
 381              		.align	2
 382              	.L27:
 383 0034 0000F81F 		.word	536346624
 384 0038 8FFF0000 		.word	65423
 385 003c 50C30000 		.word	50000
 386 0040 00000000 		.word	pFlash
 387              		.cfi_endproc
 388              	.LFE60:
 390              		.section	.text.FLASH_OB_BORConfig,"ax",%progbits
 391              		.align	2
 392              		.code	16
 393              		.thumb_func
 395              	FLASH_OB_BORConfig:
 396              	.LFB52:
 884:Drivers/STM32L0xx_HAL_Driver/Src/stm32l0xx_hal_flash_ex.c ****   HAL_StatusTypeDef status = HAL_OK;
 397              		.loc 1 884 0
 398              		.cfi_startproc
 399              		@ args = 0, pretend = 0, frame = 0
 400              		@ frame_needed = 0, uses_anonymous_args = 0
 401              	.LVL40:
 402 0000 10B5     		push	{r4, lr}
 403              	.LCFI3:
 404              		.cfi_def_cfa_offset 8
 405              		.cfi_offset 4, -8
 406              		.cfi_offset 14, -4
 407              	.LVL41:
 892:Drivers/STM32L0xx_HAL_Driver/Src/stm32l0xx_hal_flash_ex.c **** 
 408              		.loc 1 892 0
 409 0002 0B4B     		ldr	r3, .L31
 410 0004 5A68     		ldr	r2, [r3, #4]
 411 0006 0B4B     		ldr	r3, .L31+4
 412 0008 1340     		ands	r3, r2
 413              	.LVL42:
 895:Drivers/STM32L0xx_HAL_Driver/Src/stm32l0xx_hal_flash_ex.c ****   tmp |= (OB_BOR | tmp1);
 414              		.loc 1 895 0
 415 000a 1843     		orrs	r0, r3
 416              	.LVL43:
 417 000c C343     		mvns	r3, r0
 418              	.LVL44:
 419 000e 1B04     		lsls	r3, r3, #16
 420              	.LVL45:
 896:Drivers/STM32L0xx_HAL_Driver/Src/stm32l0xx_hal_flash_ex.c ****     
 421              		.loc 1 896 0
 422 0010 1843     		orrs	r0, r3
 423 0012 0400     		movs	r4, r0
 424              	.LVL46:
 899:Drivers/STM32L0xx_HAL_Driver/Src/stm32l0xx_hal_flash_ex.c ****   
 425              		.loc 1 899 0
ARM GAS  /tmp/cc70OH2t.s 			page 29


 426 0014 0848     		ldr	r0, .L31+8
 427              	.LVL47:
 428 0016 FFF7FEFF 		bl	FLASH_WaitForLastOperation
 429              	.LVL48:
 901:Drivers/STM32L0xx_HAL_Driver/Src/stm32l0xx_hal_flash_ex.c ****   {  
 430              		.loc 1 901 0
 431 001a 0028     		cmp	r0, #0
 432 001c 07D1     		bne	.L30
 904:Drivers/STM32L0xx_HAL_Driver/Src/stm32l0xx_hal_flash_ex.c **** 
 433              		.loc 1 904 0
 434 001e 0022     		movs	r2, #0
 435 0020 064B     		ldr	r3, .L31+12
 436 0022 5A61     		str	r2, [r3, #20]
 907:Drivers/STM32L0xx_HAL_Driver/Src/stm32l0xx_hal_flash_ex.c **** 
 437              		.loc 1 907 0
 438 0024 024B     		ldr	r3, .L31
 439 0026 5C60     		str	r4, [r3, #4]
 910:Drivers/STM32L0xx_HAL_Driver/Src/stm32l0xx_hal_flash_ex.c ****   }
 440              		.loc 1 910 0
 441 0028 0348     		ldr	r0, .L31+8
 442              	.LVL49:
 443 002a FFF7FEFF 		bl	FLASH_WaitForLastOperation
 444              	.LVL50:
 445              	.L30:
 915:Drivers/STM32L0xx_HAL_Driver/Src/stm32l0xx_hal_flash_ex.c **** 
 446              		.loc 1 915 0
 447              		@ sp needed
 448              	.LVL51:
 449 002e 10BD     		pop	{r4, pc}
 450              	.L32:
 451              		.align	2
 452              	.L31:
 453 0030 0000F81F 		.word	536346624
 454 0034 F0FF0000 		.word	65520
 455 0038 50C30000 		.word	50000
 456 003c 00000000 		.word	pFlash
 457              		.cfi_endproc
 458              	.LFE52:
 460              		.section	.text.FLASH_OB_BOOTBit1Config,"ax",%progbits
 461              		.align	2
 462              		.code	16
 463              		.thumb_func
 465              	FLASH_OB_BOOTBit1Config:
 466              	.LFB53:
 926:Drivers/STM32L0xx_HAL_Driver/Src/stm32l0xx_hal_flash_ex.c ****   HAL_StatusTypeDef status = HAL_OK; 
 467              		.loc 1 926 0
 468              		.cfi_startproc
 469              		@ args = 0, pretend = 0, frame = 0
 470              		@ frame_needed = 0, uses_anonymous_args = 0
 471              	.LVL52:
 472 0000 10B5     		push	{r4, lr}
 473              	.LCFI4:
 474              		.cfi_def_cfa_offset 8
 475              		.cfi_offset 4, -8
 476              		.cfi_offset 14, -4
 477              	.LVL53:
 928:Drivers/STM32L0xx_HAL_Driver/Src/stm32l0xx_hal_flash_ex.c **** 
ARM GAS  /tmp/cc70OH2t.s 			page 30


 478              		.loc 1 928 0
 479 0002 C003     		lsls	r0, r0, #15
 480              	.LVL54:
 934:Drivers/STM32L0xx_HAL_Driver/Src/stm32l0xx_hal_flash_ex.c **** 
 481              		.loc 1 934 0
 482 0004 0B4B     		ldr	r3, .L35
 483 0006 5B68     		ldr	r3, [r3, #4]
 484 0008 5B04     		lsls	r3, r3, #17
 485 000a 5B0C     		lsrs	r3, r3, #17
 486              	.LVL55:
 937:Drivers/STM32L0xx_HAL_Driver/Src/stm32l0xx_hal_flash_ex.c ****   tmp |= OB_Bits | tmp1;
 487              		.loc 1 937 0
 488 000c 1843     		orrs	r0, r3
 489              	.LVL56:
 490 000e C343     		mvns	r3, r0
 491              	.LVL57:
 492 0010 1B04     		lsls	r3, r3, #16
 493              	.LVL58:
 938:Drivers/STM32L0xx_HAL_Driver/Src/stm32l0xx_hal_flash_ex.c ****     
 494              		.loc 1 938 0
 495 0012 1843     		orrs	r0, r3
 496 0014 0400     		movs	r4, r0
 497              	.LVL59:
 941:Drivers/STM32L0xx_HAL_Driver/Src/stm32l0xx_hal_flash_ex.c ****   
 498              		.loc 1 941 0
 499 0016 0848     		ldr	r0, .L35+4
 500              	.LVL60:
 501 0018 FFF7FEFF 		bl	FLASH_WaitForLastOperation
 502              	.LVL61:
 943:Drivers/STM32L0xx_HAL_Driver/Src/stm32l0xx_hal_flash_ex.c ****   {  
 503              		.loc 1 943 0
 504 001c 0028     		cmp	r0, #0
 505 001e 07D1     		bne	.L34
 946:Drivers/STM32L0xx_HAL_Driver/Src/stm32l0xx_hal_flash_ex.c ****     /* Program OB */
 506              		.loc 1 946 0
 507 0020 0022     		movs	r2, #0
 508 0022 064B     		ldr	r3, .L35+8
 509 0024 5A61     		str	r2, [r3, #20]
 948:Drivers/STM32L0xx_HAL_Driver/Src/stm32l0xx_hal_flash_ex.c ****     /* Wait for last operation to be completed */
 510              		.loc 1 948 0
 511 0026 034B     		ldr	r3, .L35
 512 0028 5C60     		str	r4, [r3, #4]
 950:Drivers/STM32L0xx_HAL_Driver/Src/stm32l0xx_hal_flash_ex.c ****   }
 513              		.loc 1 950 0
 514 002a 0348     		ldr	r0, .L35+4
 515              	.LVL62:
 516 002c FFF7FEFF 		bl	FLASH_WaitForLastOperation
 517              	.LVL63:
 518              	.L34:
 954:Drivers/STM32L0xx_HAL_Driver/Src/stm32l0xx_hal_flash_ex.c **** 
 519              		.loc 1 954 0
 520              		@ sp needed
 521              	.LVL64:
 522 0030 10BD     		pop	{r4, pc}
 523              	.L36:
 524 0032 C046     		.align	2
 525              	.L35:
ARM GAS  /tmp/cc70OH2t.s 			page 31


 526 0034 0000F81F 		.word	536346624
 527 0038 50C30000 		.word	50000
 528 003c 00000000 		.word	pFlash
 529              		.cfi_endproc
 530              	.LFE53:
 532              		.section	.text.HAL_FLASHEx_OBProgram,"ax",%progbits
 533              		.align	2
 534              		.global	HAL_FLASHEx_OBProgram
 535              		.code	16
 536              		.thumb_func
 538              	HAL_FLASHEx_OBProgram:
 539              	.LFB39:
 346:Drivers/STM32L0xx_HAL_Driver/Src/stm32l0xx_hal_flash_ex.c ****   HAL_StatusTypeDef status = HAL_ERROR;
 540              		.loc 1 346 0
 541              		.cfi_startproc
 542              		@ args = 0, pretend = 0, frame = 0
 543              		@ frame_needed = 0, uses_anonymous_args = 0
 544              	.LVL65:
 545 0000 10B5     		push	{r4, lr}
 546              	.LCFI5:
 547              		.cfi_def_cfa_offset 8
 548              		.cfi_offset 4, -8
 549              		.cfi_offset 14, -4
 550 0002 0400     		movs	r4, r0
 551              	.LVL66:
 350:Drivers/STM32L0xx_HAL_Driver/Src/stm32l0xx_hal_flash_ex.c **** 
 552              		.loc 1 350 0
 553 0004 264B     		ldr	r3, .L46
 554 0006 1B7C     		ldrb	r3, [r3, #16]
 555 0008 012B     		cmp	r3, #1
 556 000a 46D0     		beq	.L44
 350:Drivers/STM32L0xx_HAL_Driver/Src/stm32l0xx_hal_flash_ex.c **** 
 557              		.loc 1 350 0 is_stmt 0 discriminator 2
 558 000c 0123     		movs	r3, #1
 559 000e 244A     		ldr	r2, .L46
 560 0010 1374     		strb	r3, [r2, #16]
 356:Drivers/STM32L0xx_HAL_Driver/Src/stm32l0xx_hal_flash_ex.c ****   {
 561              		.loc 1 356 0 is_stmt 1 discriminator 2
 562 0012 0268     		ldr	r2, [r0]
 563 0014 1342     		tst	r3, r2
 564 0016 09D0     		beq	.L45
 362:Drivers/STM32L0xx_HAL_Driver/Src/stm32l0xx_hal_flash_ex.c **** #endif
 565              		.loc 1 362 0
 566 0018 4168     		ldr	r1, [r0, #4]
 567 001a 8068     		ldr	r0, [r0, #8]
 568              	.LVL67:
 569 001c FFF7FEFF 		bl	FLASH_OB_ProtectedSectorsConfig
 570              	.LVL68:
 571 0020 031E     		subs	r3, r0, #0
 572              	.LVL69:
 364:Drivers/STM32L0xx_HAL_Driver/Src/stm32l0xx_hal_flash_ex.c ****     {
 573              		.loc 1 364 0
 574 0022 04D0     		beq	.L39
 367:Drivers/STM32L0xx_HAL_Driver/Src/stm32l0xx_hal_flash_ex.c ****       return status;
 575              		.loc 1 367 0
 576 0024 0022     		movs	r2, #0
 577 0026 1E4B     		ldr	r3, .L46
ARM GAS  /tmp/cc70OH2t.s 			page 32


 578 0028 1A74     		strb	r2, [r3, #16]
 368:Drivers/STM32L0xx_HAL_Driver/Src/stm32l0xx_hal_flash_ex.c ****     }
 579              		.loc 1 368 0
 580 002a 37E0     		b	.L38
 581              	.LVL70:
 582              	.L45:
 347:Drivers/STM32L0xx_HAL_Driver/Src/stm32l0xx_hal_flash_ex.c ****   
 583              		.loc 1 347 0
 584 002c 0123     		movs	r3, #1
 585              	.LVL71:
 586              	.L39:
 373:Drivers/STM32L0xx_HAL_Driver/Src/stm32l0xx_hal_flash_ex.c ****   {
 587              		.loc 1 373 0
 588 002e 2268     		ldr	r2, [r4]
 589 0030 9207     		lsls	r2, r2, #30
 590 0032 08D5     		bpl	.L40
 375:Drivers/STM32L0xx_HAL_Driver/Src/stm32l0xx_hal_flash_ex.c ****     if (status != HAL_OK)
 591              		.loc 1 375 0
 592 0034 207B     		ldrb	r0, [r4, #12]
 593 0036 FFF7FEFF 		bl	FLASH_OB_RDPConfig
 594              	.LVL72:
 595 003a 031E     		subs	r3, r0, #0
 596              	.LVL73:
 376:Drivers/STM32L0xx_HAL_Driver/Src/stm32l0xx_hal_flash_ex.c ****     {
 597              		.loc 1 376 0
 598 003c 03D0     		beq	.L40
 379:Drivers/STM32L0xx_HAL_Driver/Src/stm32l0xx_hal_flash_ex.c ****       return status;
 599              		.loc 1 379 0
 600 003e 0022     		movs	r2, #0
 601 0040 174B     		ldr	r3, .L46
 602 0042 1A74     		strb	r2, [r3, #16]
 380:Drivers/STM32L0xx_HAL_Driver/Src/stm32l0xx_hal_flash_ex.c ****     }
 603              		.loc 1 380 0
 604 0044 2AE0     		b	.L38
 605              	.LVL74:
 606              	.L40:
 385:Drivers/STM32L0xx_HAL_Driver/Src/stm32l0xx_hal_flash_ex.c ****   {
 607              		.loc 1 385 0
 608 0046 2268     		ldr	r2, [r4]
 609 0048 5207     		lsls	r2, r2, #29
 610 004a 0ED5     		bpl	.L41
 387:Drivers/STM32L0xx_HAL_Driver/Src/stm32l0xx_hal_flash_ex.c ****                                  pOBInit->USERConfig & OB_STOP_NORST,
 611              		.loc 1 387 0
 612 004c A27B     		ldrb	r2, [r4, #14]
 613 004e 1020     		movs	r0, #16
 614 0050 1040     		ands	r0, r2
 615 0052 2021     		movs	r1, #32
 616 0054 1140     		ands	r1, r2
 617 0056 4023     		movs	r3, #64
 618              	.LVL75:
 619 0058 1A40     		ands	r2, r3
 620 005a FFF7FEFF 		bl	FLASH_OB_UserConfig
 621              	.LVL76:
 622 005e 031E     		subs	r3, r0, #0
 623              	.LVL77:
 390:Drivers/STM32L0xx_HAL_Driver/Src/stm32l0xx_hal_flash_ex.c ****     {
 624              		.loc 1 390 0
ARM GAS  /tmp/cc70OH2t.s 			page 33


 625 0060 03D0     		beq	.L41
 393:Drivers/STM32L0xx_HAL_Driver/Src/stm32l0xx_hal_flash_ex.c ****       return status;
 626              		.loc 1 393 0
 627 0062 0022     		movs	r2, #0
 628 0064 0E4B     		ldr	r3, .L46
 629 0066 1A74     		strb	r2, [r3, #16]
 394:Drivers/STM32L0xx_HAL_Driver/Src/stm32l0xx_hal_flash_ex.c ****     }
 630              		.loc 1 394 0
 631 0068 18E0     		b	.L38
 632              	.LVL78:
 633              	.L41:
 399:Drivers/STM32L0xx_HAL_Driver/Src/stm32l0xx_hal_flash_ex.c ****   {
 634              		.loc 1 399 0
 635 006a 2268     		ldr	r2, [r4]
 636 006c 1207     		lsls	r2, r2, #28
 637 006e 08D5     		bpl	.L42
 401:Drivers/STM32L0xx_HAL_Driver/Src/stm32l0xx_hal_flash_ex.c ****     if (status != HAL_OK)
 638              		.loc 1 401 0
 639 0070 607B     		ldrb	r0, [r4, #13]
 640 0072 FFF7FEFF 		bl	FLASH_OB_BORConfig
 641              	.LVL79:
 642 0076 031E     		subs	r3, r0, #0
 643              	.LVL80:
 402:Drivers/STM32L0xx_HAL_Driver/Src/stm32l0xx_hal_flash_ex.c ****     {
 644              		.loc 1 402 0
 645 0078 03D0     		beq	.L42
 405:Drivers/STM32L0xx_HAL_Driver/Src/stm32l0xx_hal_flash_ex.c ****       return status;
 646              		.loc 1 405 0
 647 007a 0022     		movs	r2, #0
 648 007c 084B     		ldr	r3, .L46
 649 007e 1A74     		strb	r2, [r3, #16]
 406:Drivers/STM32L0xx_HAL_Driver/Src/stm32l0xx_hal_flash_ex.c ****     }
 650              		.loc 1 406 0
 651 0080 0CE0     		b	.L38
 652              	.LVL81:
 653              	.L42:
 411:Drivers/STM32L0xx_HAL_Driver/Src/stm32l0xx_hal_flash_ex.c ****   {
 654              		.loc 1 411 0
 655 0082 2268     		ldr	r2, [r4]
 656 0084 D206     		lsls	r2, r2, #27
 657 0086 03D5     		bpl	.L43
 413:Drivers/STM32L0xx_HAL_Driver/Src/stm32l0xx_hal_flash_ex.c ****   }
 658              		.loc 1 413 0
 659 0088 E07B     		ldrb	r0, [r4, #15]
 660 008a FFF7FEFF 		bl	FLASH_OB_BOOTBit1Config
 661              	.LVL82:
 662 008e 0300     		movs	r3, r0
 663              	.LVL83:
 664              	.L43:
 416:Drivers/STM32L0xx_HAL_Driver/Src/stm32l0xx_hal_flash_ex.c **** 
 665              		.loc 1 416 0
 666 0090 0021     		movs	r1, #0
 667 0092 034A     		ldr	r2, .L46
 668 0094 1174     		strb	r1, [r2, #16]
 418:Drivers/STM32L0xx_HAL_Driver/Src/stm32l0xx_hal_flash_ex.c **** }
 669              		.loc 1 418 0
 670 0096 1800     		movs	r0, r3
ARM GAS  /tmp/cc70OH2t.s 			page 34


 671 0098 00E0     		b	.L38
 672              	.LVL84:
 673              	.L44:
 350:Drivers/STM32L0xx_HAL_Driver/Src/stm32l0xx_hal_flash_ex.c **** 
 674              		.loc 1 350 0
 675 009a 0220     		movs	r0, #2
 676              	.LVL85:
 677              	.L38:
 419:Drivers/STM32L0xx_HAL_Driver/Src/stm32l0xx_hal_flash_ex.c **** 
 678              		.loc 1 419 0
 679              		@ sp needed
 680              	.LVL86:
 681 009c 10BD     		pop	{r4, pc}
 682              	.L47:
 683 009e C046     		.align	2
 684              	.L46:
 685 00a0 00000000 		.word	pFlash
 686              		.cfi_endproc
 687              	.LFE39:
 689              		.section	.text.HAL_FLASHEx_OBGetConfig,"ax",%progbits
 690              		.align	2
 691              		.global	HAL_FLASHEx_OBGetConfig
 692              		.code	16
 693              		.thumb_func
 695              	HAL_FLASHEx_OBGetConfig:
 696              	.LFB40:
 429:Drivers/STM32L0xx_HAL_Driver/Src/stm32l0xx_hal_flash_ex.c ****   pOBInit->OptionType = OPTIONBYTE_WRP | OPTIONBYTE_RDP | OPTIONBYTE_USER | OPTIONBYTE_BOR;
 697              		.loc 1 429 0
 698              		.cfi_startproc
 699              		@ args = 0, pretend = 0, frame = 0
 700              		@ frame_needed = 0, uses_anonymous_args = 0
 701              	.LVL87:
 702 0000 10B5     		push	{r4, lr}
 703              	.LCFI6:
 704              		.cfi_def_cfa_offset 8
 705              		.cfi_offset 4, -8
 706              		.cfi_offset 14, -4
 707 0002 0400     		movs	r4, r0
 430:Drivers/STM32L0xx_HAL_Driver/Src/stm32l0xx_hal_flash_ex.c **** 
 708              		.loc 1 430 0
 709 0004 0F23     		movs	r3, #15
 710 0006 0360     		str	r3, [r0]
 433:Drivers/STM32L0xx_HAL_Driver/Src/stm32l0xx_hal_flash_ex.c **** 
 711              		.loc 1 433 0
 712 0008 FFF7FEFF 		bl	FLASH_OB_GetWRP
 713              	.LVL88:
 714 000c A060     		str	r0, [r4, #8]
 440:Drivers/STM32L0xx_HAL_Driver/Src/stm32l0xx_hal_flash_ex.c **** 
 715              		.loc 1 440 0
 716 000e FFF7FEFF 		bl	FLASH_OB_GetRDP
 717              	.LVL89:
 718 0012 2073     		strb	r0, [r4, #12]
 443:Drivers/STM32L0xx_HAL_Driver/Src/stm32l0xx_hal_flash_ex.c **** 
 719              		.loc 1 443 0
 720 0014 FFF7FEFF 		bl	FLASH_OB_GetUser
 721              	.LVL90:
 722 0018 A073     		strb	r0, [r4, #14]
ARM GAS  /tmp/cc70OH2t.s 			page 35


 446:Drivers/STM32L0xx_HAL_Driver/Src/stm32l0xx_hal_flash_ex.c **** 
 723              		.loc 1 446 0
 724 001a FFF7FEFF 		bl	FLASH_OB_GetBOR
 725              	.LVL91:
 726 001e 6073     		strb	r0, [r4, #13]
 449:Drivers/STM32L0xx_HAL_Driver/Src/stm32l0xx_hal_flash_ex.c **** }
 727              		.loc 1 449 0
 728 0020 FFF7FEFF 		bl	FLASH_OB_GetBOOTBit1
 729              	.LVL92:
 730 0024 E073     		strb	r0, [r4, #15]
 450:Drivers/STM32L0xx_HAL_Driver/Src/stm32l0xx_hal_flash_ex.c **** 
 731              		.loc 1 450 0
 732              		@ sp needed
 733              	.LVL93:
 734 0026 10BD     		pop	{r4, pc}
 735              		.cfi_endproc
 736              	.LFE40:
 738              		.section	.text.HAL_FLASHEx_AdvOBProgram,"ax",%progbits
 739              		.align	2
 740              		.global	HAL_FLASHEx_AdvOBProgram
 741              		.code	16
 742              		.thumb_func
 744              	HAL_FLASHEx_AdvOBProgram:
 745              	.LFB41:
 462:Drivers/STM32L0xx_HAL_Driver/Src/stm32l0xx_hal_flash_ex.c ****   HAL_StatusTypeDef status = HAL_ERROR;
 746              		.loc 1 462 0
 747              		.cfi_startproc
 748              		@ args = 0, pretend = 0, frame = 0
 749              		@ frame_needed = 0, uses_anonymous_args = 0
 750              	.LVL94:
 751 0000 10B5     		push	{r4, lr}
 752              	.LCFI7:
 753              		.cfi_def_cfa_offset 8
 754              		.cfi_offset 4, -8
 755              		.cfi_offset 14, -4
 756              	.LVL95:
 471:Drivers/STM32L0xx_HAL_Driver/Src/stm32l0xx_hal_flash_ex.c ****   {
 757              		.loc 1 471 0
 758 0002 0368     		ldr	r3, [r0]
 759 0004 DB07     		lsls	r3, r3, #31
 760 0006 05D5     		bpl	.L51
 478:Drivers/STM32L0xx_HAL_Driver/Src/stm32l0xx_hal_flash_ex.c **** #endif
 761              		.loc 1 478 0
 762 0008 8368     		ldr	r3, [r0, #8]
 763 000a 4168     		ldr	r1, [r0, #4]
 764 000c 1800     		movs	r0, r3
 765              	.LVL96:
 766 000e FFF7FEFF 		bl	FLASH_OB_ProtectedSectorsConfig
 767              	.LVL97:
 768 0012 00E0     		b	.L50
 769              	.LVL98:
 770              	.L51:
 463:Drivers/STM32L0xx_HAL_Driver/Src/stm32l0xx_hal_flash_ex.c ****   
 771              		.loc 1 463 0
 772 0014 0120     		movs	r0, #1
 773              	.LVL99:
 774              	.L50:
ARM GAS  /tmp/cc70OH2t.s 			page 36


 495:Drivers/STM32L0xx_HAL_Driver/Src/stm32l0xx_hal_flash_ex.c **** 
 775              		.loc 1 495 0
 776              		@ sp needed
 777 0016 10BD     		pop	{r4, pc}
 778              		.cfi_endproc
 779              	.LFE41:
 781              		.section	.text.HAL_FLASHEx_AdvOBGetConfig,"ax",%progbits
 782              		.align	2
 783              		.global	HAL_FLASHEx_AdvOBGetConfig
 784              		.code	16
 785              		.thumb_func
 787              	HAL_FLASHEx_AdvOBGetConfig:
 788              	.LFB42:
 505:Drivers/STM32L0xx_HAL_Driver/Src/stm32l0xx_hal_flash_ex.c ****   pAdvOBInit->OptionType = 0;
 789              		.loc 1 505 0
 790              		.cfi_startproc
 791              		@ args = 0, pretend = 0, frame = 0
 792              		@ frame_needed = 0, uses_anonymous_args = 0
 793              		@ link register save eliminated.
 794              	.LVL100:
 510:Drivers/STM32L0xx_HAL_Driver/Src/stm32l0xx_hal_flash_ex.c **** 
 795              		.loc 1 510 0
 796 0000 0121     		movs	r1, #1
 797 0002 0160     		str	r1, [r0]
 514:Drivers/STM32L0xx_HAL_Driver/Src/stm32l0xx_hal_flash_ex.c ****   /* Get PCROP protected sector */
 798              		.loc 1 514 0
 799 0004 034A     		ldr	r2, .L53
 800 0006 D369     		ldr	r3, [r2, #28]
 801 0008 1B0A     		lsrs	r3, r3, #8
 802 000a 0B40     		ands	r3, r1
 803 000c 4360     		str	r3, [r0, #4]
 516:Drivers/STM32L0xx_HAL_Driver/Src/stm32l0xx_hal_flash_ex.c **** 
 804              		.loc 1 516 0
 805 000e 136A     		ldr	r3, [r2, #32]
 806 0010 8360     		str	r3, [r0, #8]
 532:Drivers/STM32L0xx_HAL_Driver/Src/stm32l0xx_hal_flash_ex.c **** 
 807              		.loc 1 532 0
 808              		@ sp needed
 809 0012 7047     		bx	lr
 810              	.L54:
 811              		.align	2
 812              	.L53:
 813 0014 00200240 		.word	1073881088
 814              		.cfi_endproc
 815              	.LFE42:
 817              		.section	.text.HAL_FLASHEx_OB_SelectPCROP,"ax",%progbits
 818              		.align	2
 819              		.global	HAL_FLASHEx_OB_SelectPCROP
 820              		.code	16
 821              		.thumb_func
 823              	HAL_FLASHEx_OB_SelectPCROP:
 824              	.LFB43:
 545:Drivers/STM32L0xx_HAL_Driver/Src/stm32l0xx_hal_flash_ex.c ****   HAL_StatusTypeDef status = HAL_OK;
 825              		.loc 1 545 0
 826              		.cfi_startproc
 827              		@ args = 0, pretend = 0, frame = 0
 828              		@ frame_needed = 0, uses_anonymous_args = 0
ARM GAS  /tmp/cc70OH2t.s 			page 37


 829 0000 10B5     		push	{r4, lr}
 830              	.LCFI8:
 831              		.cfi_def_cfa_offset 8
 832              		.cfi_offset 4, -8
 833              		.cfi_offset 14, -4
 834              	.LVL101:
 552:Drivers/STM32L0xx_HAL_Driver/Src/stm32l0xx_hal_flash_ex.c ****   
 835              		.loc 1 552 0
 836 0002 0B48     		ldr	r0, .L57
 837 0004 FFF7FEFF 		bl	FLASH_WaitForLastOperation
 838              	.LVL102:
 555:Drivers/STM32L0xx_HAL_Driver/Src/stm32l0xx_hal_flash_ex.c ****   
 839              		.loc 1 555 0
 840 0008 0A4B     		ldr	r3, .L57+4
 841 000a 1B78     		ldrb	r3, [r3]
 842              	.LVL103:
 558:Drivers/STM32L0xx_HAL_Driver/Src/stm32l0xx_hal_flash_ex.c ****   
 843              		.loc 1 558 0
 844 000c 8022     		movs	r2, #128
 845 000e 5200     		lsls	r2, r2, #1
 846 0010 1343     		orrs	r3, r2
 847              	.LVL104:
 561:Drivers/STM32L0xx_HAL_Driver/Src/stm32l0xx_hal_flash_ex.c ****   tmp2 = (uint32_t)(((uint32_t)((uint32_t)(tmp1) << 16U)) | ((uint32_t)optiontmp2));
 848              		.loc 1 561 0
 849 0012 DA43     		mvns	r2, r3
 850              	.LVL105:
 562:Drivers/STM32L0xx_HAL_Driver/Src/stm32l0xx_hal_flash_ex.c ****   
 851              		.loc 1 562 0
 852 0014 1204     		lsls	r2, r2, #16
 853              	.LVL106:
 854 0016 1343     		orrs	r3, r2
 855              	.LVL107:
 564:Drivers/STM32L0xx_HAL_Driver/Src/stm32l0xx_hal_flash_ex.c ****   {         
 856              		.loc 1 564 0
 857 0018 0028     		cmp	r0, #0
 858 001a 07D1     		bne	.L56
 567:Drivers/STM32L0xx_HAL_Driver/Src/stm32l0xx_hal_flash_ex.c **** 
 859              		.loc 1 567 0
 860 001c 0021     		movs	r1, #0
 861 001e 064A     		ldr	r2, .L57+8
 862 0020 5161     		str	r1, [r2, #20]
 570:Drivers/STM32L0xx_HAL_Driver/Src/stm32l0xx_hal_flash_ex.c ****     
 863              		.loc 1 570 0
 864 0022 044A     		ldr	r2, .L57+4
 865 0024 1360     		str	r3, [r2]
 573:Drivers/STM32L0xx_HAL_Driver/Src/stm32l0xx_hal_flash_ex.c ****   }
 866              		.loc 1 573 0
 867 0026 0248     		ldr	r0, .L57
 868              	.LVL108:
 869 0028 FFF7FEFF 		bl	FLASH_WaitForLastOperation
 870              	.LVL109:
 871              	.L56:
 578:Drivers/STM32L0xx_HAL_Driver/Src/stm32l0xx_hal_flash_ex.c **** 
 872              		.loc 1 578 0
 873              		@ sp needed
 874 002c 10BD     		pop	{r4, pc}
 875              	.L58:
ARM GAS  /tmp/cc70OH2t.s 			page 38


 876 002e C046     		.align	2
 877              	.L57:
 878 0030 50C30000 		.word	50000
 879 0034 0000F81F 		.word	536346624
 880 0038 00000000 		.word	pFlash
 881              		.cfi_endproc
 882              	.LFE43:
 884              		.section	.text.HAL_FLASHEx_OB_DeSelectPCROP,"ax",%progbits
 885              		.align	2
 886              		.global	HAL_FLASHEx_OB_DeSelectPCROP
 887              		.code	16
 888              		.thumb_func
 890              	HAL_FLASHEx_OB_DeSelectPCROP:
 891              	.LFB44:
 587:Drivers/STM32L0xx_HAL_Driver/Src/stm32l0xx_hal_flash_ex.c ****   HAL_StatusTypeDef status = HAL_OK;
 892              		.loc 1 587 0
 893              		.cfi_startproc
 894              		@ args = 0, pretend = 0, frame = 0
 895              		@ frame_needed = 0, uses_anonymous_args = 0
 896 0000 10B5     		push	{r4, lr}
 897              	.LCFI9:
 898              		.cfi_def_cfa_offset 8
 899              		.cfi_offset 4, -8
 900              		.cfi_offset 14, -4
 901              	.LVL110:
 594:Drivers/STM32L0xx_HAL_Driver/Src/stm32l0xx_hal_flash_ex.c ****   
 902              		.loc 1 594 0
 903 0002 0A48     		ldr	r0, .L61
 904 0004 FFF7FEFF 		bl	FLASH_WaitForLastOperation
 905              	.LVL111:
 597:Drivers/STM32L0xx_HAL_Driver/Src/stm32l0xx_hal_flash_ex.c ****   
 906              		.loc 1 597 0
 907 0008 094B     		ldr	r3, .L61+4
 908 000a 1B78     		ldrb	r3, [r3]
 909 000c DBB2     		uxtb	r3, r3
 910              	.LVL112:
 603:Drivers/STM32L0xx_HAL_Driver/Src/stm32l0xx_hal_flash_ex.c ****   tmp2 = (uint32_t)(((uint32_t)((uint32_t)(tmp1) << 16U)) | ((uint32_t)optiontmp2));
 911              		.loc 1 603 0
 912 000e DA43     		mvns	r2, r3
 913              	.LVL113:
 604:Drivers/STM32L0xx_HAL_Driver/Src/stm32l0xx_hal_flash_ex.c ****   
 914              		.loc 1 604 0
 915 0010 1204     		lsls	r2, r2, #16
 916              	.LVL114:
 917 0012 1343     		orrs	r3, r2
 918              	.LVL115:
 606:Drivers/STM32L0xx_HAL_Driver/Src/stm32l0xx_hal_flash_ex.c ****   {         
 919              		.loc 1 606 0
 920 0014 0028     		cmp	r0, #0
 921 0016 07D1     		bne	.L60
 609:Drivers/STM32L0xx_HAL_Driver/Src/stm32l0xx_hal_flash_ex.c **** 
 922              		.loc 1 609 0
 923 0018 0021     		movs	r1, #0
 924 001a 064A     		ldr	r2, .L61+8
 925 001c 5161     		str	r1, [r2, #20]
 612:Drivers/STM32L0xx_HAL_Driver/Src/stm32l0xx_hal_flash_ex.c ****     
 926              		.loc 1 612 0
ARM GAS  /tmp/cc70OH2t.s 			page 39


 927 001e 044A     		ldr	r2, .L61+4
 928 0020 1360     		str	r3, [r2]
 615:Drivers/STM32L0xx_HAL_Driver/Src/stm32l0xx_hal_flash_ex.c ****   }
 929              		.loc 1 615 0
 930 0022 0248     		ldr	r0, .L61
 931              	.LVL116:
 932 0024 FFF7FEFF 		bl	FLASH_WaitForLastOperation
 933              	.LVL117:
 934              	.L60:
 620:Drivers/STM32L0xx_HAL_Driver/Src/stm32l0xx_hal_flash_ex.c **** 
 935              		.loc 1 620 0
 936              		@ sp needed
 937 0028 10BD     		pop	{r4, pc}
 938              	.L62:
 939 002a C046     		.align	2
 940              	.L61:
 941 002c 50C30000 		.word	50000
 942 0030 0000F81F 		.word	536346624
 943 0034 00000000 		.word	pFlash
 944              		.cfi_endproc
 945              	.LFE44:
 947              		.section	.text.HAL_FLASHEx_DATAEEPROM_Unlock,"ax",%progbits
 948              		.align	2
 949              		.global	HAL_FLASHEx_DATAEEPROM_Unlock
 950              		.code	16
 951              		.thumb_func
 953              	HAL_FLASHEx_DATAEEPROM_Unlock:
 954              	.LFB45:
 653:Drivers/STM32L0xx_HAL_Driver/Src/stm32l0xx_hal_flash_ex.c ****   if((FLASH->PECR & FLASH_PECR_PELOCK) != RESET)
 955              		.loc 1 653 0
 956              		.cfi_startproc
 957              		@ args = 0, pretend = 0, frame = 0
 958              		@ frame_needed = 0, uses_anonymous_args = 0
 959              		@ link register save eliminated.
 654:Drivers/STM32L0xx_HAL_Driver/Src/stm32l0xx_hal_flash_ex.c ****   {  
 960              		.loc 1 654 0
 961 0000 064B     		ldr	r3, .L66
 962 0002 5B68     		ldr	r3, [r3, #4]
 963 0004 DB07     		lsls	r3, r3, #31
 964 0006 06D5     		bpl	.L65
 657:Drivers/STM32L0xx_HAL_Driver/Src/stm32l0xx_hal_flash_ex.c ****     FLASH->PEKEYR = FLASH_PEKEY2;
 965              		.loc 1 657 0
 966 0008 044B     		ldr	r3, .L66
 967 000a 054A     		ldr	r2, .L66+4
 968 000c DA60     		str	r2, [r3, #12]
 658:Drivers/STM32L0xx_HAL_Driver/Src/stm32l0xx_hal_flash_ex.c ****   }
 969              		.loc 1 658 0
 970 000e 054A     		ldr	r2, .L66+8
 971 0010 DA60     		str	r2, [r3, #12]
 664:Drivers/STM32L0xx_HAL_Driver/Src/stm32l0xx_hal_flash_ex.c **** }
 972              		.loc 1 664 0
 973 0012 0020     		movs	r0, #0
 974 0014 00E0     		b	.L64
 975              	.L65:
 662:Drivers/STM32L0xx_HAL_Driver/Src/stm32l0xx_hal_flash_ex.c ****   }
 976              		.loc 1 662 0
 977 0016 0120     		movs	r0, #1
ARM GAS  /tmp/cc70OH2t.s 			page 40


 978              	.L64:
 665:Drivers/STM32L0xx_HAL_Driver/Src/stm32l0xx_hal_flash_ex.c **** 
 979              		.loc 1 665 0
 980              		@ sp needed
 981 0018 7047     		bx	lr
 982              	.L67:
 983 001a C046     		.align	2
 984              	.L66:
 985 001c 00200240 		.word	1073881088
 986 0020 EFCDAB89 		.word	-1985229329
 987 0024 05040302 		.word	33752069
 988              		.cfi_endproc
 989              	.LFE45:
 991              		.section	.text.HAL_FLASHEx_DATAEEPROM_Lock,"ax",%progbits
 992              		.align	2
 993              		.global	HAL_FLASHEx_DATAEEPROM_Lock
 994              		.code	16
 995              		.thumb_func
 997              	HAL_FLASHEx_DATAEEPROM_Lock:
 998              	.LFB46:
 672:Drivers/STM32L0xx_HAL_Driver/Src/stm32l0xx_hal_flash_ex.c ****   /* Set the PELOCK Bit to lock the data memory and FLASH_PECR register access */
 999              		.loc 1 672 0
 1000              		.cfi_startproc
 1001              		@ args = 0, pretend = 0, frame = 0
 1002              		@ frame_needed = 0, uses_anonymous_args = 0
 1003              		@ link register save eliminated.
 674:Drivers/STM32L0xx_HAL_Driver/Src/stm32l0xx_hal_flash_ex.c ****   
 1004              		.loc 1 674 0
 1005 0000 034A     		ldr	r2, .L69
 1006 0002 5168     		ldr	r1, [r2, #4]
 1007 0004 0123     		movs	r3, #1
 1008 0006 0B43     		orrs	r3, r1
 1009 0008 5360     		str	r3, [r2, #4]
 677:Drivers/STM32L0xx_HAL_Driver/Src/stm32l0xx_hal_flash_ex.c **** 
 1010              		.loc 1 677 0
 1011 000a 0020     		movs	r0, #0
 1012              		@ sp needed
 1013 000c 7047     		bx	lr
 1014              	.L70:
 1015 000e C046     		.align	2
 1016              	.L69:
 1017 0010 00200240 		.word	1073881088
 1018              		.cfi_endproc
 1019              	.LFE46:
 1021              		.section	.text.HAL_FLASHEx_DATAEEPROM_Erase,"ax",%progbits
 1022              		.align	2
 1023              		.global	HAL_FLASHEx_DATAEEPROM_Erase
 1024              		.code	16
 1025              		.thumb_func
 1027              	HAL_FLASHEx_DATAEEPROM_Erase:
 1028              	.LFB47:
 690:Drivers/STM32L0xx_HAL_Driver/Src/stm32l0xx_hal_flash_ex.c ****   HAL_StatusTypeDef status = HAL_OK;
 1029              		.loc 1 690 0
 1030              		.cfi_startproc
 1031              		@ args = 0, pretend = 0, frame = 0
 1032              		@ frame_needed = 0, uses_anonymous_args = 0
 1033              	.LVL118:
ARM GAS  /tmp/cc70OH2t.s 			page 41


 1034 0000 10B5     		push	{r4, lr}
 1035              	.LCFI10:
 1036              		.cfi_def_cfa_offset 8
 1037              		.cfi_offset 4, -8
 1038              		.cfi_offset 14, -4
 1039 0002 0400     		movs	r4, r0
 1040              	.LVL119:
 697:Drivers/STM32L0xx_HAL_Driver/Src/stm32l0xx_hal_flash_ex.c ****   
 1041              		.loc 1 697 0
 1042 0004 0648     		ldr	r0, .L73
 1043              	.LVL120:
 1044 0006 FFF7FEFF 		bl	FLASH_WaitForLastOperation
 1045              	.LVL121:
 699:Drivers/STM32L0xx_HAL_Driver/Src/stm32l0xx_hal_flash_ex.c ****   {
 1046              		.loc 1 699 0
 1047 000a 0028     		cmp	r0, #0
 1048 000c 06D1     		bne	.L72
 702:Drivers/STM32L0xx_HAL_Driver/Src/stm32l0xx_hal_flash_ex.c **** 
 1049              		.loc 1 702 0
 1050 000e 0023     		movs	r3, #0
 1051 0010 044A     		ldr	r2, .L73+4
 1052 0012 5361     		str	r3, [r2, #20]
 705:Drivers/STM32L0xx_HAL_Driver/Src/stm32l0xx_hal_flash_ex.c **** 
 1053              		.loc 1 705 0
 1054 0014 2360     		str	r3, [r4]
 707:Drivers/STM32L0xx_HAL_Driver/Src/stm32l0xx_hal_flash_ex.c ****   }
 1055              		.loc 1 707 0
 1056 0016 0248     		ldr	r0, .L73
 1057              	.LVL122:
 1058 0018 FFF7FEFF 		bl	FLASH_WaitForLastOperation
 1059              	.LVL123:
 1060              	.L72:
 712:Drivers/STM32L0xx_HAL_Driver/Src/stm32l0xx_hal_flash_ex.c **** 
 1061              		.loc 1 712 0
 1062              		@ sp needed
 1063              	.LVL124:
 1064 001c 10BD     		pop	{r4, pc}
 1065              	.L74:
 1066 001e C046     		.align	2
 1067              	.L73:
 1068 0020 50C30000 		.word	50000
 1069 0024 00000000 		.word	pFlash
 1070              		.cfi_endproc
 1071              	.LFE47:
 1073              		.section	.text.HAL_FLASHEx_DATAEEPROM_Program,"ax",%progbits
 1074              		.align	2
 1075              		.global	HAL_FLASHEx_DATAEEPROM_Program
 1076              		.code	16
 1077              		.thumb_func
 1079              	HAL_FLASHEx_DATAEEPROM_Program:
 1080              	.LFB48:
 732:Drivers/STM32L0xx_HAL_Driver/Src/stm32l0xx_hal_flash_ex.c ****   HAL_StatusTypeDef status = HAL_ERROR;
 1081              		.loc 1 732 0
 1082              		.cfi_startproc
 1083              		@ args = 0, pretend = 0, frame = 0
 1084              		@ frame_needed = 0, uses_anonymous_args = 0
 1085              	.LVL125:
ARM GAS  /tmp/cc70OH2t.s 			page 42


 1086 0000 70B5     		push	{r4, r5, r6, lr}
 1087              	.LCFI11:
 1088              		.cfi_def_cfa_offset 16
 1089              		.cfi_offset 4, -16
 1090              		.cfi_offset 5, -12
 1091              		.cfi_offset 6, -8
 1092              		.cfi_offset 14, -4
 1093 0002 0400     		movs	r4, r0
 1094 0004 0E00     		movs	r6, r1
 1095 0006 1500     		movs	r5, r2
 1096              	.LVL126:
 736:Drivers/STM32L0xx_HAL_Driver/Src/stm32l0xx_hal_flash_ex.c **** 
 1097              		.loc 1 736 0
 1098 0008 144B     		ldr	r3, .L83
 1099 000a 1B7C     		ldrb	r3, [r3, #16]
 1100 000c 012B     		cmp	r3, #1
 1101 000e 22D0     		beq	.L81
 736:Drivers/STM32L0xx_HAL_Driver/Src/stm32l0xx_hal_flash_ex.c **** 
 1102              		.loc 1 736 0 is_stmt 0 discriminator 2
 1103 0010 0122     		movs	r2, #1
 1104              	.LVL127:
 1105 0012 124B     		ldr	r3, .L83
 1106 0014 1A74     		strb	r2, [r3, #16]
 743:Drivers/STM32L0xx_HAL_Driver/Src/stm32l0xx_hal_flash_ex.c ****   
 1107              		.loc 1 743 0 is_stmt 1 discriminator 2
 1108 0016 1248     		ldr	r0, .L83+4
 1109              	.LVL128:
 1110 0018 FFF7FEFF 		bl	FLASH_WaitForLastOperation
 1111              	.LVL129:
 745:Drivers/STM32L0xx_HAL_Driver/Src/stm32l0xx_hal_flash_ex.c ****   {
 1112              		.loc 1 745 0 discriminator 2
 1113 001c 0028     		cmp	r0, #0
 1114 001e 16D1     		bne	.L77
 748:Drivers/STM32L0xx_HAL_Driver/Src/stm32l0xx_hal_flash_ex.c **** 
 1115              		.loc 1 748 0
 1116 0020 0022     		movs	r2, #0
 1117 0022 0E4B     		ldr	r3, .L83
 1118 0024 5A61     		str	r2, [r3, #20]
 750:Drivers/STM32L0xx_HAL_Driver/Src/stm32l0xx_hal_flash_ex.c ****     {
 1119              		.loc 1 750 0
 1120 0026 022C     		cmp	r4, #2
 1121 0028 01D1     		bne	.L78
 753:Drivers/STM32L0xx_HAL_Driver/Src/stm32l0xx_hal_flash_ex.c ****     }
 1122              		.loc 1 753 0
 1123 002a 3560     		str	r5, [r6]
 1124 002c 0AE0     		b	.L79
 1125              	.L78:
 755:Drivers/STM32L0xx_HAL_Driver/Src/stm32l0xx_hal_flash_ex.c ****     {
 1126              		.loc 1 755 0
 1127 002e 012C     		cmp	r4, #1
 1128 0030 02D1     		bne	.L80
 758:Drivers/STM32L0xx_HAL_Driver/Src/stm32l0xx_hal_flash_ex.c ****     }
 1129              		.loc 1 758 0
 1130 0032 ADB2     		uxth	r5, r5
 1131              	.LVL130:
 1132 0034 3580     		strh	r5, [r6]
 1133 0036 05E0     		b	.L79
ARM GAS  /tmp/cc70OH2t.s 			page 43


 1134              	.LVL131:
 1135              	.L80:
 760:Drivers/STM32L0xx_HAL_Driver/Src/stm32l0xx_hal_flash_ex.c ****     {
 1136              		.loc 1 760 0
 1137 0038 002C     		cmp	r4, #0
 1138 003a 02D1     		bne	.L82
 763:Drivers/STM32L0xx_HAL_Driver/Src/stm32l0xx_hal_flash_ex.c ****     }
 1139              		.loc 1 763 0
 1140 003c EDB2     		uxtb	r5, r5
 1141              	.LVL132:
 1142 003e 3570     		strb	r5, [r6]
 1143 0040 00E0     		b	.L79
 1144              	.LVL133:
 1145              	.L82:
 767:Drivers/STM32L0xx_HAL_Driver/Src/stm32l0xx_hal_flash_ex.c ****     }
 1146              		.loc 1 767 0
 1147 0042 0120     		movs	r0, #1
 1148              	.LVL134:
 1149              	.L79:
 770:Drivers/STM32L0xx_HAL_Driver/Src/stm32l0xx_hal_flash_ex.c ****     {
 1150              		.loc 1 770 0
 1151 0044 0028     		cmp	r0, #0
 1152 0046 02D0     		beq	.L77
 773:Drivers/STM32L0xx_HAL_Driver/Src/stm32l0xx_hal_flash_ex.c ****     }
 1153              		.loc 1 773 0
 1154 0048 0548     		ldr	r0, .L83+4
 1155              	.LVL135:
 1156 004a FFF7FEFF 		bl	FLASH_WaitForLastOperation
 1157              	.LVL136:
 1158              	.L77:
 778:Drivers/STM32L0xx_HAL_Driver/Src/stm32l0xx_hal_flash_ex.c **** 
 1159              		.loc 1 778 0
 1160 004e 0022     		movs	r2, #0
 1161 0050 024B     		ldr	r3, .L83
 1162 0052 1A74     		strb	r2, [r3, #16]
 780:Drivers/STM32L0xx_HAL_Driver/Src/stm32l0xx_hal_flash_ex.c **** }
 1163              		.loc 1 780 0
 1164 0054 00E0     		b	.L76
 1165              	.LVL137:
 1166              	.L81:
 736:Drivers/STM32L0xx_HAL_Driver/Src/stm32l0xx_hal_flash_ex.c **** 
 1167              		.loc 1 736 0
 1168 0056 0220     		movs	r0, #2
 1169              	.LVL138:
 1170              	.L76:
 781:Drivers/STM32L0xx_HAL_Driver/Src/stm32l0xx_hal_flash_ex.c **** 
 1171              		.loc 1 781 0
 1172              		@ sp needed
 1173              	.LVL139:
 1174              	.LVL140:
 1175 0058 70BD     		pop	{r4, r5, r6, pc}
 1176              	.L84:
 1177 005a C046     		.align	2
 1178              	.L83:
 1179 005c 00000000 		.word	pFlash
 1180 0060 50C30000 		.word	50000
 1181              		.cfi_endproc
ARM GAS  /tmp/cc70OH2t.s 			page 44


 1182              	.LFE48:
 1184              		.section	.text.HAL_FLASHEx_DATAEEPROM_EnableFixedTimeProgram,"ax",%progbits
 1185              		.align	2
 1186              		.global	HAL_FLASHEx_DATAEEPROM_EnableFixedTimeProgram
 1187              		.code	16
 1188              		.thumb_func
 1190              	HAL_FLASHEx_DATAEEPROM_EnableFixedTimeProgram:
 1191              	.LFB49:
 788:Drivers/STM32L0xx_HAL_Driver/Src/stm32l0xx_hal_flash_ex.c ****   SET_BIT(FLASH->PECR, FLASH_PECR_FIX);
 1192              		.loc 1 788 0
 1193              		.cfi_startproc
 1194              		@ args = 0, pretend = 0, frame = 0
 1195              		@ frame_needed = 0, uses_anonymous_args = 0
 1196              		@ link register save eliminated.
 789:Drivers/STM32L0xx_HAL_Driver/Src/stm32l0xx_hal_flash_ex.c **** }
 1197              		.loc 1 789 0
 1198 0000 034A     		ldr	r2, .L86
 1199 0002 5368     		ldr	r3, [r2, #4]
 1200 0004 8021     		movs	r1, #128
 1201 0006 4900     		lsls	r1, r1, #1
 1202 0008 0B43     		orrs	r3, r1
 1203 000a 5360     		str	r3, [r2, #4]
 790:Drivers/STM32L0xx_HAL_Driver/Src/stm32l0xx_hal_flash_ex.c **** 
 1204              		.loc 1 790 0
 1205              		@ sp needed
 1206 000c 7047     		bx	lr
 1207              	.L87:
 1208 000e C046     		.align	2
 1209              	.L86:
 1210 0010 00200240 		.word	1073881088
 1211              		.cfi_endproc
 1212              	.LFE49:
 1214              		.section	.text.HAL_FLASHEx_DATAEEPROM_DisableFixedTimeProgram,"ax",%progbits
 1215              		.align	2
 1216              		.global	HAL_FLASHEx_DATAEEPROM_DisableFixedTimeProgram
 1217              		.code	16
 1218              		.thumb_func
 1220              	HAL_FLASHEx_DATAEEPROM_DisableFixedTimeProgram:
 1221              	.LFB50:
 797:Drivers/STM32L0xx_HAL_Driver/Src/stm32l0xx_hal_flash_ex.c ****   CLEAR_BIT(FLASH->PECR, FLASH_PECR_FIX);
 1222              		.loc 1 797 0
 1223              		.cfi_startproc
 1224              		@ args = 0, pretend = 0, frame = 0
 1225              		@ frame_needed = 0, uses_anonymous_args = 0
 1226              		@ link register save eliminated.
 798:Drivers/STM32L0xx_HAL_Driver/Src/stm32l0xx_hal_flash_ex.c **** }
 1227              		.loc 1 798 0
 1228 0000 024A     		ldr	r2, .L89
 1229 0002 5168     		ldr	r1, [r2, #4]
 1230 0004 024B     		ldr	r3, .L89+4
 1231 0006 0B40     		ands	r3, r1
 1232 0008 5360     		str	r3, [r2, #4]
 799:Drivers/STM32L0xx_HAL_Driver/Src/stm32l0xx_hal_flash_ex.c **** 
 1233              		.loc 1 799 0
 1234              		@ sp needed
 1235 000a 7047     		bx	lr
 1236              	.L90:
ARM GAS  /tmp/cc70OH2t.s 			page 45


 1237              		.align	2
 1238              	.L89:
 1239 000c 00200240 		.word	1073881088
 1240 0010 FFFEFFFF 		.word	-257
 1241              		.cfi_endproc
 1242              	.LFE50:
 1244              		.section	.text.FLASH_PageErase,"ax",%progbits
 1245              		.align	2
 1246              		.global	FLASH_PageErase
 1247              		.code	16
 1248              		.thumb_func
 1250              	FLASH_PageErase:
 1251              	.LFB61:
1173:Drivers/STM32L0xx_HAL_Driver/Src/stm32l0xx_hal_flash_ex.c **** 
1174:Drivers/STM32L0xx_HAL_Driver/Src/stm32l0xx_hal_flash_ex.c **** #if defined(FLASH_OPTR_BFB2)
1175:Drivers/STM32L0xx_HAL_Driver/Src/stm32l0xx_hal_flash_ex.c **** /**
1176:Drivers/STM32L0xx_HAL_Driver/Src/stm32l0xx_hal_flash_ex.c ****   * @brief  Configures to boot from Bank1 or Bank2.
1177:Drivers/STM32L0xx_HAL_Driver/Src/stm32l0xx_hal_flash_ex.c ****   * @param  OB_BOOT select the FLASH Bank to boot from.
1178:Drivers/STM32L0xx_HAL_Driver/Src/stm32l0xx_hal_flash_ex.c ****   *   This parameter can be one of the following values:
1179:Drivers/STM32L0xx_HAL_Driver/Src/stm32l0xx_hal_flash_ex.c ****   *          This parameter can be one of the following values:
1180:Drivers/STM32L0xx_HAL_Driver/Src/stm32l0xx_hal_flash_ex.c ****   *             @arg @ref OB_BOOT_BANK1 BFB2 option bit reset
1181:Drivers/STM32L0xx_HAL_Driver/Src/stm32l0xx_hal_flash_ex.c ****   *             @arg @ref OB_BOOT_BANK2 BFB2 option bit set
1182:Drivers/STM32L0xx_HAL_Driver/Src/stm32l0xx_hal_flash_ex.c ****   * @retval HAL status
1183:Drivers/STM32L0xx_HAL_Driver/Src/stm32l0xx_hal_flash_ex.c ****   */
1184:Drivers/STM32L0xx_HAL_Driver/Src/stm32l0xx_hal_flash_ex.c **** static HAL_StatusTypeDef FLASH_OB_BootConfig(uint8_t OB_BOOT)
1185:Drivers/STM32L0xx_HAL_Driver/Src/stm32l0xx_hal_flash_ex.c **** {
1186:Drivers/STM32L0xx_HAL_Driver/Src/stm32l0xx_hal_flash_ex.c ****   HAL_StatusTypeDef status = HAL_OK; 
1187:Drivers/STM32L0xx_HAL_Driver/Src/stm32l0xx_hal_flash_ex.c ****   uint32_t tmp = 0U, tmp1 = 0U;
1188:Drivers/STM32L0xx_HAL_Driver/Src/stm32l0xx_hal_flash_ex.c **** 
1189:Drivers/STM32L0xx_HAL_Driver/Src/stm32l0xx_hal_flash_ex.c ****   /* Check the parameters */
1190:Drivers/STM32L0xx_HAL_Driver/Src/stm32l0xx_hal_flash_ex.c ****   assert_param(IS_OB_BOOT_BANK(OB_BOOT));
1191:Drivers/STM32L0xx_HAL_Driver/Src/stm32l0xx_hal_flash_ex.c **** 
1192:Drivers/STM32L0xx_HAL_Driver/Src/stm32l0xx_hal_flash_ex.c ****   /* Get the User Option byte register  and BOR Level*/
1193:Drivers/STM32L0xx_HAL_Driver/Src/stm32l0xx_hal_flash_ex.c ****   tmp1 = OB->USER & ((~FLASH_OPTR_BFB2) >> 16U);
1194:Drivers/STM32L0xx_HAL_Driver/Src/stm32l0xx_hal_flash_ex.c **** 
1195:Drivers/STM32L0xx_HAL_Driver/Src/stm32l0xx_hal_flash_ex.c ****   /* Calculate the option byte to write */
1196:Drivers/STM32L0xx_HAL_Driver/Src/stm32l0xx_hal_flash_ex.c ****   tmp = (uint32_t)~(OB_BOOT | tmp1) << 16U;
1197:Drivers/STM32L0xx_HAL_Driver/Src/stm32l0xx_hal_flash_ex.c ****   tmp |= (OB_BOOT | tmp1);
1198:Drivers/STM32L0xx_HAL_Driver/Src/stm32l0xx_hal_flash_ex.c **** 
1199:Drivers/STM32L0xx_HAL_Driver/Src/stm32l0xx_hal_flash_ex.c ****   /* Wait for last operation to be completed */
1200:Drivers/STM32L0xx_HAL_Driver/Src/stm32l0xx_hal_flash_ex.c ****   status = FLASH_WaitForLastOperation(FLASH_TIMEOUT_VALUE);
1201:Drivers/STM32L0xx_HAL_Driver/Src/stm32l0xx_hal_flash_ex.c **** 
1202:Drivers/STM32L0xx_HAL_Driver/Src/stm32l0xx_hal_flash_ex.c ****   if(status == HAL_OK)
1203:Drivers/STM32L0xx_HAL_Driver/Src/stm32l0xx_hal_flash_ex.c ****   {  
1204:Drivers/STM32L0xx_HAL_Driver/Src/stm32l0xx_hal_flash_ex.c ****     /* Clean the error context */
1205:Drivers/STM32L0xx_HAL_Driver/Src/stm32l0xx_hal_flash_ex.c ****     pFlash.ErrorCode = HAL_FLASH_ERROR_NONE;
1206:Drivers/STM32L0xx_HAL_Driver/Src/stm32l0xx_hal_flash_ex.c **** 
1207:Drivers/STM32L0xx_HAL_Driver/Src/stm32l0xx_hal_flash_ex.c ****     /* Write the BOOT Option Byte */
1208:Drivers/STM32L0xx_HAL_Driver/Src/stm32l0xx_hal_flash_ex.c ****     OB->USER = tmp;
1209:Drivers/STM32L0xx_HAL_Driver/Src/stm32l0xx_hal_flash_ex.c ****     
1210:Drivers/STM32L0xx_HAL_Driver/Src/stm32l0xx_hal_flash_ex.c ****     /* Wait for last operation to be completed */
1211:Drivers/STM32L0xx_HAL_Driver/Src/stm32l0xx_hal_flash_ex.c ****     status = FLASH_WaitForLastOperation(FLASH_TIMEOUT_VALUE);
1212:Drivers/STM32L0xx_HAL_Driver/Src/stm32l0xx_hal_flash_ex.c ****   }
1213:Drivers/STM32L0xx_HAL_Driver/Src/stm32l0xx_hal_flash_ex.c **** 
1214:Drivers/STM32L0xx_HAL_Driver/Src/stm32l0xx_hal_flash_ex.c ****   /* Return the Option Byte program Status */
1215:Drivers/STM32L0xx_HAL_Driver/Src/stm32l0xx_hal_flash_ex.c ****   return status;
1216:Drivers/STM32L0xx_HAL_Driver/Src/stm32l0xx_hal_flash_ex.c **** }
ARM GAS  /tmp/cc70OH2t.s 			page 46


1217:Drivers/STM32L0xx_HAL_Driver/Src/stm32l0xx_hal_flash_ex.c **** 
1218:Drivers/STM32L0xx_HAL_Driver/Src/stm32l0xx_hal_flash_ex.c **** #endif /* FLASH_OPTR_BFB2 */
1219:Drivers/STM32L0xx_HAL_Driver/Src/stm32l0xx_hal_flash_ex.c **** 
1220:Drivers/STM32L0xx_HAL_Driver/Src/stm32l0xx_hal_flash_ex.c **** /**
1221:Drivers/STM32L0xx_HAL_Driver/Src/stm32l0xx_hal_flash_ex.c ****   * @}
1222:Drivers/STM32L0xx_HAL_Driver/Src/stm32l0xx_hal_flash_ex.c ****   */
1223:Drivers/STM32L0xx_HAL_Driver/Src/stm32l0xx_hal_flash_ex.c **** 
1224:Drivers/STM32L0xx_HAL_Driver/Src/stm32l0xx_hal_flash_ex.c **** /**
1225:Drivers/STM32L0xx_HAL_Driver/Src/stm32l0xx_hal_flash_ex.c ****   * @}
1226:Drivers/STM32L0xx_HAL_Driver/Src/stm32l0xx_hal_flash_ex.c ****   */
1227:Drivers/STM32L0xx_HAL_Driver/Src/stm32l0xx_hal_flash_ex.c **** 
1228:Drivers/STM32L0xx_HAL_Driver/Src/stm32l0xx_hal_flash_ex.c **** /** @addtogroup FLASH
1229:Drivers/STM32L0xx_HAL_Driver/Src/stm32l0xx_hal_flash_ex.c ****   * @{
1230:Drivers/STM32L0xx_HAL_Driver/Src/stm32l0xx_hal_flash_ex.c ****   */
1231:Drivers/STM32L0xx_HAL_Driver/Src/stm32l0xx_hal_flash_ex.c **** 
1232:Drivers/STM32L0xx_HAL_Driver/Src/stm32l0xx_hal_flash_ex.c **** 
1233:Drivers/STM32L0xx_HAL_Driver/Src/stm32l0xx_hal_flash_ex.c **** /** @addtogroup FLASH_Private_Functions
1234:Drivers/STM32L0xx_HAL_Driver/Src/stm32l0xx_hal_flash_ex.c ****  * @{
1235:Drivers/STM32L0xx_HAL_Driver/Src/stm32l0xx_hal_flash_ex.c ****  */
1236:Drivers/STM32L0xx_HAL_Driver/Src/stm32l0xx_hal_flash_ex.c **** 
1237:Drivers/STM32L0xx_HAL_Driver/Src/stm32l0xx_hal_flash_ex.c **** /**
1238:Drivers/STM32L0xx_HAL_Driver/Src/stm32l0xx_hal_flash_ex.c ****   * @brief  Erases a specified page in program memory.
1239:Drivers/STM32L0xx_HAL_Driver/Src/stm32l0xx_hal_flash_ex.c ****   * @param  PageAddress The page address in program memory to be erased.
1240:Drivers/STM32L0xx_HAL_Driver/Src/stm32l0xx_hal_flash_ex.c ****   * @note   A Page is erased in the Program memory only if the address to load 
1241:Drivers/STM32L0xx_HAL_Driver/Src/stm32l0xx_hal_flash_ex.c ****   *         is the start address of a page (multiple of @ref FLASH_PAGE_SIZE bytes).
1242:Drivers/STM32L0xx_HAL_Driver/Src/stm32l0xx_hal_flash_ex.c ****   * @retval None
1243:Drivers/STM32L0xx_HAL_Driver/Src/stm32l0xx_hal_flash_ex.c ****   */
1244:Drivers/STM32L0xx_HAL_Driver/Src/stm32l0xx_hal_flash_ex.c **** void FLASH_PageErase(uint32_t PageAddress)
1245:Drivers/STM32L0xx_HAL_Driver/Src/stm32l0xx_hal_flash_ex.c **** {
 1252              		.loc 1 1245 0
 1253              		.cfi_startproc
 1254              		@ args = 0, pretend = 0, frame = 0
 1255              		@ frame_needed = 0, uses_anonymous_args = 0
 1256              	.LVL141:
 1257 0000 10B5     		push	{r4, lr}
 1258              	.LCFI12:
 1259              		.cfi_def_cfa_offset 8
 1260              		.cfi_offset 4, -8
 1261              		.cfi_offset 14, -4
1246:Drivers/STM32L0xx_HAL_Driver/Src/stm32l0xx_hal_flash_ex.c ****   /* Clean the error context */
1247:Drivers/STM32L0xx_HAL_Driver/Src/stm32l0xx_hal_flash_ex.c ****   pFlash.ErrorCode = HAL_FLASH_ERROR_NONE;
 1262              		.loc 1 1247 0
 1263 0002 0021     		movs	r1, #0
 1264 0004 074B     		ldr	r3, .L92
 1265 0006 5961     		str	r1, [r3, #20]
1248:Drivers/STM32L0xx_HAL_Driver/Src/stm32l0xx_hal_flash_ex.c **** 
1249:Drivers/STM32L0xx_HAL_Driver/Src/stm32l0xx_hal_flash_ex.c ****   /* Set the ERASE bit */
1250:Drivers/STM32L0xx_HAL_Driver/Src/stm32l0xx_hal_flash_ex.c ****   SET_BIT(FLASH->PECR, FLASH_PECR_ERASE);
 1266              		.loc 1 1250 0
 1267 0008 074B     		ldr	r3, .L92+4
 1268 000a 5A68     		ldr	r2, [r3, #4]
 1269 000c 8024     		movs	r4, #128
 1270 000e A400     		lsls	r4, r4, #2
 1271 0010 2243     		orrs	r2, r4
 1272 0012 5A60     		str	r2, [r3, #4]
1251:Drivers/STM32L0xx_HAL_Driver/Src/stm32l0xx_hal_flash_ex.c **** 
1252:Drivers/STM32L0xx_HAL_Driver/Src/stm32l0xx_hal_flash_ex.c ****   /* Set PROG bit */
ARM GAS  /tmp/cc70OH2t.s 			page 47


1253:Drivers/STM32L0xx_HAL_Driver/Src/stm32l0xx_hal_flash_ex.c ****   SET_BIT(FLASH->PECR, FLASH_PECR_PROG);
 1273              		.loc 1 1253 0
 1274 0014 5C68     		ldr	r4, [r3, #4]
 1275 0016 0822     		movs	r2, #8
 1276 0018 2243     		orrs	r2, r4
 1277 001a 5A60     		str	r2, [r3, #4]
1254:Drivers/STM32L0xx_HAL_Driver/Src/stm32l0xx_hal_flash_ex.c **** 
1255:Drivers/STM32L0xx_HAL_Driver/Src/stm32l0xx_hal_flash_ex.c ****   /* Write 00000000h to the first word of the program page to erase */
1256:Drivers/STM32L0xx_HAL_Driver/Src/stm32l0xx_hal_flash_ex.c ****   *(__IO uint32_t *)(uint32_t)(PageAddress & ~(FLASH_PAGE_SIZE - 1)) = 0x00000000;
 1278              		.loc 1 1256 0
 1279 001c 7F23     		movs	r3, #127
 1280 001e 9843     		bics	r0, r3
 1281              	.LVL142:
 1282 0020 0160     		str	r1, [r0]
1257:Drivers/STM32L0xx_HAL_Driver/Src/stm32l0xx_hal_flash_ex.c **** }
 1283              		.loc 1 1257 0
 1284              		@ sp needed
 1285 0022 10BD     		pop	{r4, pc}
 1286              	.L93:
 1287              		.align	2
 1288              	.L92:
 1289 0024 00000000 		.word	pFlash
 1290 0028 00200240 		.word	1073881088
 1291              		.cfi_endproc
 1292              	.LFE61:
 1294              		.section	.text.HAL_FLASHEx_Erase,"ax",%progbits
 1295              		.align	2
 1296              		.global	HAL_FLASHEx_Erase
 1297              		.code	16
 1298              		.thumb_func
 1300              	HAL_FLASHEx_Erase:
 1301              	.LFB37:
 190:Drivers/STM32L0xx_HAL_Driver/Src/stm32l0xx_hal_flash_ex.c ****   HAL_StatusTypeDef status = HAL_ERROR;
 1302              		.loc 1 190 0
 1303              		.cfi_startproc
 1304              		@ args = 0, pretend = 0, frame = 0
 1305              		@ frame_needed = 0, uses_anonymous_args = 0
 1306              	.LVL143:
 1307 0000 70B5     		push	{r4, r5, r6, lr}
 1308              	.LCFI13:
 1309              		.cfi_def_cfa_offset 16
 1310              		.cfi_offset 4, -16
 1311              		.cfi_offset 5, -12
 1312              		.cfi_offset 6, -8
 1313              		.cfi_offset 14, -4
 1314 0002 0500     		movs	r5, r0
 1315 0004 0E00     		movs	r6, r1
 1316              	.LVL144:
 195:Drivers/STM32L0xx_HAL_Driver/Src/stm32l0xx_hal_flash_ex.c **** 
 1317              		.loc 1 195 0
 1318 0006 194B     		ldr	r3, .L101
 1319 0008 1B7C     		ldrb	r3, [r3, #16]
 1320 000a 012B     		cmp	r3, #1
 1321 000c 2BD0     		beq	.L100
 195:Drivers/STM32L0xx_HAL_Driver/Src/stm32l0xx_hal_flash_ex.c **** 
 1322              		.loc 1 195 0 is_stmt 0 discriminator 2
 1323 000e 0122     		movs	r2, #1
ARM GAS  /tmp/cc70OH2t.s 			page 48


 1324 0010 164B     		ldr	r3, .L101
 1325 0012 1A74     		strb	r2, [r3, #16]
 198:Drivers/STM32L0xx_HAL_Driver/Src/stm32l0xx_hal_flash_ex.c **** 
 1326              		.loc 1 198 0 is_stmt 1 discriminator 2
 1327 0014 1648     		ldr	r0, .L101+4
 1328              	.LVL145:
 1329 0016 FFF7FEFF 		bl	FLASH_WaitForLastOperation
 1330              	.LVL146:
 200:Drivers/STM32L0xx_HAL_Driver/Src/stm32l0xx_hal_flash_ex.c ****   {
 1331              		.loc 1 200 0 discriminator 2
 1332 001a 0028     		cmp	r0, #0
 1333 001c 1FD1     		bne	.L96
 203:Drivers/STM32L0xx_HAL_Driver/Src/stm32l0xx_hal_flash_ex.c **** 
 1334              		.loc 1 203 0
 1335 001e 0123     		movs	r3, #1
 1336 0020 5B42     		rsbs	r3, r3, #0
 1337 0022 3360     		str	r3, [r6]
 212:Drivers/STM32L0xx_HAL_Driver/Src/stm32l0xx_hal_flash_ex.c ****         address < ((pEraseInit->NbPages * FLASH_PAGE_SIZE) + pEraseInit->PageAddress);
 1338              		.loc 1 212 0
 1339 0024 6C68     		ldr	r4, [r5, #4]
 1340              	.LVL147:
 1341 0026 13E0     		b	.L97
 1342              	.L99:
 216:Drivers/STM32L0xx_HAL_Driver/Src/stm32l0xx_hal_flash_ex.c **** 
 1343              		.loc 1 216 0
 1344 0028 2000     		movs	r0, r4
 1345              	.LVL148:
 1346 002a FFF7FEFF 		bl	FLASH_PageErase
 1347              	.LVL149:
 219:Drivers/STM32L0xx_HAL_Driver/Src/stm32l0xx_hal_flash_ex.c **** 
 1348              		.loc 1 219 0
 1349 002e 1048     		ldr	r0, .L101+4
 1350 0030 FFF7FEFF 		bl	FLASH_WaitForLastOperation
 1351              	.LVL150:
 222:Drivers/STM32L0xx_HAL_Driver/Src/stm32l0xx_hal_flash_ex.c ****       CLEAR_BIT(FLASH->PECR, FLASH_PECR_ERASE);
 1352              		.loc 1 222 0
 1353 0034 0F4B     		ldr	r3, .L101+8
 1354 0036 5A68     		ldr	r2, [r3, #4]
 1355 0038 0821     		movs	r1, #8
 1356 003a 8A43     		bics	r2, r1
 1357 003c 5A60     		str	r2, [r3, #4]
 223:Drivers/STM32L0xx_HAL_Driver/Src/stm32l0xx_hal_flash_ex.c **** 
 1358              		.loc 1 223 0
 1359 003e 5968     		ldr	r1, [r3, #4]
 1360 0040 0D4A     		ldr	r2, .L101+12
 1361 0042 0A40     		ands	r2, r1
 1362 0044 5A60     		str	r2, [r3, #4]
 225:Drivers/STM32L0xx_HAL_Driver/Src/stm32l0xx_hal_flash_ex.c ****       {
 1363              		.loc 1 225 0
 1364 0046 0028     		cmp	r0, #0
 1365 0048 01D0     		beq	.L98
 228:Drivers/STM32L0xx_HAL_Driver/Src/stm32l0xx_hal_flash_ex.c ****         break;
 1366              		.loc 1 228 0
 1367 004a 3460     		str	r4, [r6]
 229:Drivers/STM32L0xx_HAL_Driver/Src/stm32l0xx_hal_flash_ex.c ****       }
 1368              		.loc 1 229 0
 1369 004c 07E0     		b	.L96
ARM GAS  /tmp/cc70OH2t.s 			page 49


 1370              	.L98:
 214:Drivers/STM32L0xx_HAL_Driver/Src/stm32l0xx_hal_flash_ex.c ****     {
 1371              		.loc 1 214 0
 1372 004e 8034     		adds	r4, r4, #128
 1373              	.LVL151:
 1374              	.L97:
 213:Drivers/STM32L0xx_HAL_Driver/Src/stm32l0xx_hal_flash_ex.c ****         address += FLASH_PAGE_SIZE)
 1375              		.loc 1 213 0 discriminator 1
 1376 0050 AB68     		ldr	r3, [r5, #8]
 1377 0052 DB01     		lsls	r3, r3, #7
 1378 0054 6A68     		ldr	r2, [r5, #4]
 1379 0056 9446     		mov	ip, r2
 1380 0058 6344     		add	r3, r3, ip
 212:Drivers/STM32L0xx_HAL_Driver/Src/stm32l0xx_hal_flash_ex.c ****         address < ((pEraseInit->NbPages * FLASH_PAGE_SIZE) + pEraseInit->PageAddress);
 1381              		.loc 1 212 0 discriminator 1
 1382 005a 9C42     		cmp	r4, r3
 1383 005c E4D3     		bcc	.L99
 1384              	.LVL152:
 1385              	.L96:
 235:Drivers/STM32L0xx_HAL_Driver/Src/stm32l0xx_hal_flash_ex.c **** 
 1386              		.loc 1 235 0
 1387 005e 0022     		movs	r2, #0
 1388 0060 024B     		ldr	r3, .L101
 1389 0062 1A74     		strb	r2, [r3, #16]
 237:Drivers/STM32L0xx_HAL_Driver/Src/stm32l0xx_hal_flash_ex.c **** }
 1390              		.loc 1 237 0
 1391 0064 00E0     		b	.L95
 1392              	.LVL153:
 1393              	.L100:
 195:Drivers/STM32L0xx_HAL_Driver/Src/stm32l0xx_hal_flash_ex.c **** 
 1394              		.loc 1 195 0
 1395 0066 0220     		movs	r0, #2
 1396              	.LVL154:
 1397              	.L95:
 238:Drivers/STM32L0xx_HAL_Driver/Src/stm32l0xx_hal_flash_ex.c **** 
 1398              		.loc 1 238 0
 1399              		@ sp needed
 1400              	.LVL155:
 1401              	.LVL156:
 1402 0068 70BD     		pop	{r4, r5, r6, pc}
 1403              	.L102:
 1404 006a C046     		.align	2
 1405              	.L101:
 1406 006c 00000000 		.word	pFlash
 1407 0070 50C30000 		.word	50000
 1408 0074 00200240 		.word	1073881088
 1409 0078 FFFDFFFF 		.word	-513
 1410              		.cfi_endproc
 1411              	.LFE37:
 1413              		.section	.text.HAL_FLASHEx_Erase_IT,"ax",%progbits
 1414              		.align	2
 1415              		.global	HAL_FLASHEx_Erase_IT
 1416              		.code	16
 1417              		.thumb_func
 1419              	HAL_FLASHEx_Erase_IT:
 1420              	.LFB38:
 254:Drivers/STM32L0xx_HAL_Driver/Src/stm32l0xx_hal_flash_ex.c ****   HAL_StatusTypeDef status = HAL_ERROR;
ARM GAS  /tmp/cc70OH2t.s 			page 50


 1421              		.loc 1 254 0
 1422              		.cfi_startproc
 1423              		@ args = 0, pretend = 0, frame = 0
 1424              		@ frame_needed = 0, uses_anonymous_args = 0
 1425              	.LVL157:
 1426 0000 70B5     		push	{r4, r5, r6, lr}
 1427              	.LCFI14:
 1428              		.cfi_def_cfa_offset 16
 1429              		.cfi_offset 4, -16
 1430              		.cfi_offset 5, -12
 1431              		.cfi_offset 6, -8
 1432              		.cfi_offset 14, -4
 1433 0002 0500     		movs	r5, r0
 1434              	.LVL158:
 258:Drivers/STM32L0xx_HAL_Driver/Src/stm32l0xx_hal_flash_ex.c ****   {
 1435              		.loc 1 258 0
 1436 0004 144B     		ldr	r3, .L108
 1437 0006 1B78     		ldrb	r3, [r3]
 1438 0008 002B     		cmp	r3, #0
 1439 000a 21D1     		bne	.L106
 270:Drivers/STM32L0xx_HAL_Driver/Src/stm32l0xx_hal_flash_ex.c **** 
 1440              		.loc 1 270 0
 1441 000c 124B     		ldr	r3, .L108
 1442 000e 1B7C     		ldrb	r3, [r3, #16]
 1443 0010 012B     		cmp	r3, #1
 1444 0012 1FD0     		beq	.L107
 270:Drivers/STM32L0xx_HAL_Driver/Src/stm32l0xx_hal_flash_ex.c **** 
 1445              		.loc 1 270 0 is_stmt 0 discriminator 2
 1446 0014 0122     		movs	r2, #1
 1447 0016 104B     		ldr	r3, .L108
 1448 0018 1A74     		strb	r2, [r3, #16]
 273:Drivers/STM32L0xx_HAL_Driver/Src/stm32l0xx_hal_flash_ex.c ****   
 1449              		.loc 1 273 0 is_stmt 1 discriminator 2
 1450 001a 1048     		ldr	r0, .L108+4
 1451              	.LVL159:
 1452 001c FFF7FEFF 		bl	FLASH_WaitForLastOperation
 1453              	.LVL160:
 1454 0020 041E     		subs	r4, r0, #0
 1455              	.LVL161:
 275:Drivers/STM32L0xx_HAL_Driver/Src/stm32l0xx_hal_flash_ex.c ****   {
 1456              		.loc 1 275 0 discriminator 2
 1457 0022 11D1     		bne	.L105
 278:Drivers/STM32L0xx_HAL_Driver/Src/stm32l0xx_hal_flash_ex.c ****     
 1458              		.loc 1 278 0
 1459 0024 0E4A     		ldr	r2, .L108+8
 1460 0026 5368     		ldr	r3, [r2, #4]
 1461 0028 C021     		movs	r1, #192
 1462 002a 8902     		lsls	r1, r1, #10
 1463 002c 0B43     		orrs	r3, r1
 1464 002e 5360     		str	r3, [r2, #4]
 280:Drivers/STM32L0xx_HAL_Driver/Src/stm32l0xx_hal_flash_ex.c ****     pFlash.NbPagesToErase = pEraseInit->NbPages;
 1465              		.loc 1 280 0
 1466 0030 094B     		ldr	r3, .L108
 1467 0032 0122     		movs	r2, #1
 1468 0034 1A70     		strb	r2, [r3]
 281:Drivers/STM32L0xx_HAL_Driver/Src/stm32l0xx_hal_flash_ex.c ****     pFlash.Page = pEraseInit->PageAddress;
 1469              		.loc 1 281 0
ARM GAS  /tmp/cc70OH2t.s 			page 51


 1470 0036 AA68     		ldr	r2, [r5, #8]
 1471 0038 5A60     		str	r2, [r3, #4]
 282:Drivers/STM32L0xx_HAL_Driver/Src/stm32l0xx_hal_flash_ex.c **** 
 1472              		.loc 1 282 0
 1473 003a 6A68     		ldr	r2, [r5, #4]
 1474 003c DA60     		str	r2, [r3, #12]
 285:Drivers/STM32L0xx_HAL_Driver/Src/stm32l0xx_hal_flash_ex.c ****   }
 1475              		.loc 1 285 0
 1476 003e 6868     		ldr	r0, [r5, #4]
 1477              	.LVL162:
 1478 0040 FFF7FEFF 		bl	FLASH_PageErase
 1479              	.LVL163:
 293:Drivers/STM32L0xx_HAL_Driver/Src/stm32l0xx_hal_flash_ex.c **** }
 1480              		.loc 1 293 0
 1481 0044 2000     		movs	r0, r4
 1482 0046 06E0     		b	.L104
 1483              	.LVL164:
 1484              	.L105:
 290:Drivers/STM32L0xx_HAL_Driver/Src/stm32l0xx_hal_flash_ex.c ****   }
 1485              		.loc 1 290 0
 1486 0048 0022     		movs	r2, #0
 1487 004a 034B     		ldr	r3, .L108
 1488 004c 1A74     		strb	r2, [r3, #16]
 1489 004e 02E0     		b	.L104
 1490              	.LVL165:
 1491              	.L106:
 260:Drivers/STM32L0xx_HAL_Driver/Src/stm32l0xx_hal_flash_ex.c ****   }
 1492              		.loc 1 260 0
 1493 0050 0120     		movs	r0, #1
 1494              	.LVL166:
 1495 0052 00E0     		b	.L104
 1496              	.LVL167:
 1497              	.L107:
 270:Drivers/STM32L0xx_HAL_Driver/Src/stm32l0xx_hal_flash_ex.c **** 
 1498              		.loc 1 270 0
 1499 0054 0220     		movs	r0, #2
 1500              	.LVL168:
 1501              	.L104:
 294:Drivers/STM32L0xx_HAL_Driver/Src/stm32l0xx_hal_flash_ex.c **** 
 1502              		.loc 1 294 0
 1503              		@ sp needed
 1504              	.LVL169:
 1505 0056 70BD     		pop	{r4, r5, r6, pc}
 1506              	.L109:
 1507              		.align	2
 1508              	.L108:
 1509 0058 00000000 		.word	pFlash
 1510 005c 50C30000 		.word	50000
 1511 0060 00200240 		.word	1073881088
 1512              		.cfi_endproc
 1513              	.LFE38:
 1515              		.text
 1516              	.Letext0:
 1517              		.file 2 "/home/manojkumar/Ac6/SystemWorkbench/plugins/fr.ac6.mcu.externaltools.arm-none.linux64_1.
 1518              		.file 3 "/home/manojkumar/Ac6/SystemWorkbench/plugins/fr.ac6.mcu.externaltools.arm-none.linux64_1.
 1519              		.file 4 "Drivers/CMSIS/Device/ST/STM32L0xx/Include/stm32l053xx.h"
 1520              		.file 5 "Drivers/CMSIS/Device/ST/STM32L0xx/Include/stm32l0xx.h"
ARM GAS  /tmp/cc70OH2t.s 			page 52


 1521              		.file 6 "Drivers/STM32L0xx_HAL_Driver/Inc/stm32l0xx_hal_def.h"
 1522              		.file 7 "Drivers/STM32L0xx_HAL_Driver/Inc/stm32l0xx_hal_flash.h"
 1523              		.file 8 "Drivers/STM32L0xx_HAL_Driver/Inc/stm32l0xx_hal_flash_ex.h"
ARM GAS  /tmp/cc70OH2t.s 			page 53


DEFINED SYMBOLS
                            *ABS*:00000000 stm32l0xx_hal_flash_ex.c
     /tmp/cc70OH2t.s:20     .text.FLASH_OB_GetUser:00000000 $t
     /tmp/cc70OH2t.s:24     .text.FLASH_OB_GetUser:00000000 FLASH_OB_GetUser
     /tmp/cc70OH2t.s:44     .text.FLASH_OB_GetUser:0000000c $d
     /tmp/cc70OH2t.s:49     .text.FLASH_OB_GetRDP:00000000 $t
     /tmp/cc70OH2t.s:53     .text.FLASH_OB_GetRDP:00000000 FLASH_OB_GetRDP
     /tmp/cc70OH2t.s:70     .text.FLASH_OB_GetRDP:00000008 $d
     /tmp/cc70OH2t.s:75     .text.FLASH_OB_GetBOR:00000000 $t
     /tmp/cc70OH2t.s:79     .text.FLASH_OB_GetBOR:00000000 FLASH_OB_GetBOR
     /tmp/cc70OH2t.s:98     .text.FLASH_OB_GetBOR:0000000c $d
     /tmp/cc70OH2t.s:103    .text.FLASH_OB_GetBOOTBit1:00000000 $t
     /tmp/cc70OH2t.s:107    .text.FLASH_OB_GetBOOTBit1:00000000 FLASH_OB_GetBOOTBit1
     /tmp/cc70OH2t.s:124    .text.FLASH_OB_GetBOOTBit1:00000008 $d
     /tmp/cc70OH2t.s:129    .text.FLASH_OB_GetWRP:00000000 $t
     /tmp/cc70OH2t.s:133    .text.FLASH_OB_GetWRP:00000000 FLASH_OB_GetWRP
     /tmp/cc70OH2t.s:149    .text.FLASH_OB_GetWRP:00000008 $d
     /tmp/cc70OH2t.s:154    .text.FLASH_OB_ProtectedSectorsConfig:00000000 $t
     /tmp/cc70OH2t.s:158    .text.FLASH_OB_ProtectedSectorsConfig:00000000 FLASH_OB_ProtectedSectorsConfig
     /tmp/cc70OH2t.s:238    .text.FLASH_OB_ProtectedSectorsConfig:0000004c $d
     /tmp/cc70OH2t.s:245    .text.FLASH_OB_RDPConfig:00000000 $t
     /tmp/cc70OH2t.s:249    .text.FLASH_OB_RDPConfig:00000000 FLASH_OB_RDPConfig
     /tmp/cc70OH2t.s:312    .text.FLASH_OB_RDPConfig:00000034 $d
     /tmp/cc70OH2t.s:319    .text.FLASH_OB_UserConfig:00000000 $t
     /tmp/cc70OH2t.s:323    .text.FLASH_OB_UserConfig:00000000 FLASH_OB_UserConfig
     /tmp/cc70OH2t.s:383    .text.FLASH_OB_UserConfig:00000034 $d
     /tmp/cc70OH2t.s:391    .text.FLASH_OB_BORConfig:00000000 $t
     /tmp/cc70OH2t.s:395    .text.FLASH_OB_BORConfig:00000000 FLASH_OB_BORConfig
     /tmp/cc70OH2t.s:453    .text.FLASH_OB_BORConfig:00000030 $d
     /tmp/cc70OH2t.s:461    .text.FLASH_OB_BOOTBit1Config:00000000 $t
     /tmp/cc70OH2t.s:465    .text.FLASH_OB_BOOTBit1Config:00000000 FLASH_OB_BOOTBit1Config
     /tmp/cc70OH2t.s:526    .text.FLASH_OB_BOOTBit1Config:00000034 $d
     /tmp/cc70OH2t.s:533    .text.HAL_FLASHEx_OBProgram:00000000 $t
     /tmp/cc70OH2t.s:538    .text.HAL_FLASHEx_OBProgram:00000000 HAL_FLASHEx_OBProgram
     /tmp/cc70OH2t.s:685    .text.HAL_FLASHEx_OBProgram:000000a0 $d
     /tmp/cc70OH2t.s:690    .text.HAL_FLASHEx_OBGetConfig:00000000 $t
     /tmp/cc70OH2t.s:695    .text.HAL_FLASHEx_OBGetConfig:00000000 HAL_FLASHEx_OBGetConfig
     /tmp/cc70OH2t.s:739    .text.HAL_FLASHEx_AdvOBProgram:00000000 $t
     /tmp/cc70OH2t.s:744    .text.HAL_FLASHEx_AdvOBProgram:00000000 HAL_FLASHEx_AdvOBProgram
     /tmp/cc70OH2t.s:782    .text.HAL_FLASHEx_AdvOBGetConfig:00000000 $t
     /tmp/cc70OH2t.s:787    .text.HAL_FLASHEx_AdvOBGetConfig:00000000 HAL_FLASHEx_AdvOBGetConfig
     /tmp/cc70OH2t.s:813    .text.HAL_FLASHEx_AdvOBGetConfig:00000014 $d
     /tmp/cc70OH2t.s:818    .text.HAL_FLASHEx_OB_SelectPCROP:00000000 $t
     /tmp/cc70OH2t.s:823    .text.HAL_FLASHEx_OB_SelectPCROP:00000000 HAL_FLASHEx_OB_SelectPCROP
     /tmp/cc70OH2t.s:878    .text.HAL_FLASHEx_OB_SelectPCROP:00000030 $d
     /tmp/cc70OH2t.s:885    .text.HAL_FLASHEx_OB_DeSelectPCROP:00000000 $t
     /tmp/cc70OH2t.s:890    .text.HAL_FLASHEx_OB_DeSelectPCROP:00000000 HAL_FLASHEx_OB_DeSelectPCROP
     /tmp/cc70OH2t.s:941    .text.HAL_FLASHEx_OB_DeSelectPCROP:0000002c $d
     /tmp/cc70OH2t.s:948    .text.HAL_FLASHEx_DATAEEPROM_Unlock:00000000 $t
     /tmp/cc70OH2t.s:953    .text.HAL_FLASHEx_DATAEEPROM_Unlock:00000000 HAL_FLASHEx_DATAEEPROM_Unlock
     /tmp/cc70OH2t.s:985    .text.HAL_FLASHEx_DATAEEPROM_Unlock:0000001c $d
     /tmp/cc70OH2t.s:992    .text.HAL_FLASHEx_DATAEEPROM_Lock:00000000 $t
     /tmp/cc70OH2t.s:997    .text.HAL_FLASHEx_DATAEEPROM_Lock:00000000 HAL_FLASHEx_DATAEEPROM_Lock
     /tmp/cc70OH2t.s:1017   .text.HAL_FLASHEx_DATAEEPROM_Lock:00000010 $d
     /tmp/cc70OH2t.s:1022   .text.HAL_FLASHEx_DATAEEPROM_Erase:00000000 $t
     /tmp/cc70OH2t.s:1027   .text.HAL_FLASHEx_DATAEEPROM_Erase:00000000 HAL_FLASHEx_DATAEEPROM_Erase
     /tmp/cc70OH2t.s:1068   .text.HAL_FLASHEx_DATAEEPROM_Erase:00000020 $d
ARM GAS  /tmp/cc70OH2t.s 			page 54


     /tmp/cc70OH2t.s:1074   .text.HAL_FLASHEx_DATAEEPROM_Program:00000000 $t
     /tmp/cc70OH2t.s:1079   .text.HAL_FLASHEx_DATAEEPROM_Program:00000000 HAL_FLASHEx_DATAEEPROM_Program
     /tmp/cc70OH2t.s:1179   .text.HAL_FLASHEx_DATAEEPROM_Program:0000005c $d
     /tmp/cc70OH2t.s:1185   .text.HAL_FLASHEx_DATAEEPROM_EnableFixedTimeProgram:00000000 $t
     /tmp/cc70OH2t.s:1190   .text.HAL_FLASHEx_DATAEEPROM_EnableFixedTimeProgram:00000000 HAL_FLASHEx_DATAEEPROM_EnableFixedTimeProgram
     /tmp/cc70OH2t.s:1210   .text.HAL_FLASHEx_DATAEEPROM_EnableFixedTimeProgram:00000010 $d
     /tmp/cc70OH2t.s:1215   .text.HAL_FLASHEx_DATAEEPROM_DisableFixedTimeProgram:00000000 $t
     /tmp/cc70OH2t.s:1220   .text.HAL_FLASHEx_DATAEEPROM_DisableFixedTimeProgram:00000000 HAL_FLASHEx_DATAEEPROM_DisableFixedTimeProgram
     /tmp/cc70OH2t.s:1239   .text.HAL_FLASHEx_DATAEEPROM_DisableFixedTimeProgram:0000000c $d
     /tmp/cc70OH2t.s:1245   .text.FLASH_PageErase:00000000 $t
     /tmp/cc70OH2t.s:1250   .text.FLASH_PageErase:00000000 FLASH_PageErase
     /tmp/cc70OH2t.s:1289   .text.FLASH_PageErase:00000024 $d
     /tmp/cc70OH2t.s:1295   .text.HAL_FLASHEx_Erase:00000000 $t
     /tmp/cc70OH2t.s:1300   .text.HAL_FLASHEx_Erase:00000000 HAL_FLASHEx_Erase
     /tmp/cc70OH2t.s:1406   .text.HAL_FLASHEx_Erase:0000006c $d
     /tmp/cc70OH2t.s:1414   .text.HAL_FLASHEx_Erase_IT:00000000 $t
     /tmp/cc70OH2t.s:1419   .text.HAL_FLASHEx_Erase_IT:00000000 HAL_FLASHEx_Erase_IT
     /tmp/cc70OH2t.s:1509   .text.HAL_FLASHEx_Erase_IT:00000058 $d
                     .debug_frame:00000010 $d

UNDEFINED SYMBOLS
FLASH_WaitForLastOperation
pFlash
